
/home/clo91eaf/Project/zaozi/rvprobe/src/cases/output/elf/coverage/RV32I.elf:     file format elf64-littleriscv


Disassembly of section .text:

0000000080000000 <_start>:
    80000000:	00049813          	slli	a6,s1,0x0
    80000004:	00089213          	slli	tp,a7,0x0
    80000008:	00091893          	slli	a7,s2,0x0
    8000000c:	000a9d93          	slli	s11,s5,0x0
    80000010:	000b9b13          	slli	s6,s7,0x0
    80000014:	00031513          	slli	a0,t1,0x0
    80000018:	000a1b13          	slli	s6,s4,0x0
    8000001c:	000d1093          	slli	ra,s10,0x0
    80000020:	000f9293          	slli	t0,t6,0x0
    80000024:	000c9e13          	slli	t3,s9,0x0
    80000028:	000f1613          	slli	a2,t5,0x0
    8000002c:	00079d13          	slli	s10,a5,0x0
    80000030:	000f9c13          	slli	s8,t6,0x0
    80000034:	000e1113          	slli	sp,t3,0x0
    80000038:	00019e93          	slli	t4,gp,0x0
    8000003c:	00059193          	slli	gp,a1,0x0
    80000040:	00011693          	slli	a3,sp,0x0
    80000044:	000b1313          	slli	t1,s6,0x0
    80000048:	00081493          	slli	s1,a6,0x0
    8000004c:	00069a13          	slli	s4,a3,0x0
    80000050:	00009793          	slli	a5,ra,0x0
    80000054:	00099f93          	slli	t6,s3,0x0
    80000058:	00041f13          	slli	t5,s0,0x0
    8000005c:	000f1f13          	slli	t5,t5,0x0
    80000060:	000f9393          	slli	t2,t6,0x0
    80000064:	000e9913          	slli	s2,t4,0x0
    80000068:	00021993          	slli	s3,tp,0x0
    8000006c:	00029f93          	slli	t6,t0,0x0
    80000070:	00039c93          	slli	s9,t2,0x0
    80000074:	000d1713          	slli	a4,s10,0x0
    80000078:	000d9193          	slli	gp,s11,0x0
    8000007c:	00051a93          	slli	s5,a0,0x0
    80000080:	00071413          	slli	s0,a4,0x0
    80000084:	00061b93          	slli	s7,a2,0x0
    80000088:	000c1593          	slli	a1,s8,0x0
    8000008c:	4004d813          	srai	a6,s1,0x0
    80000090:	4008d213          	srai	tp,a7,0x0
    80000094:	40095893          	srai	a7,s2,0x0
    80000098:	400add93          	srai	s11,s5,0x0
    8000009c:	400bdb13          	srai	s6,s7,0x0
    800000a0:	40035513          	srai	a0,t1,0x0
    800000a4:	400a5b13          	srai	s6,s4,0x0
    800000a8:	400d5093          	srai	ra,s10,0x0
    800000ac:	400fd293          	srai	t0,t6,0x0
    800000b0:	400cde13          	srai	t3,s9,0x0
    800000b4:	400f5613          	srai	a2,t5,0x0
    800000b8:	4007dd13          	srai	s10,a5,0x0
    800000bc:	400fdc13          	srai	s8,t6,0x0
    800000c0:	400e5113          	srai	sp,t3,0x0
    800000c4:	4001de93          	srai	t4,gp,0x0
    800000c8:	4005d193          	srai	gp,a1,0x0
    800000cc:	40015693          	srai	a3,sp,0x0
    800000d0:	400b5313          	srai	t1,s6,0x0
    800000d4:	40085493          	srai	s1,a6,0x0
    800000d8:	4006da13          	srai	s4,a3,0x0
    800000dc:	4000d793          	srai	a5,ra,0x0
    800000e0:	4009df93          	srai	t6,s3,0x0
    800000e4:	40045f13          	srai	t5,s0,0x0
    800000e8:	400f5f13          	srai	t5,t5,0x0
    800000ec:	400fd393          	srai	t2,t6,0x0
    800000f0:	400ed913          	srai	s2,t4,0x0
    800000f4:	40025993          	srai	s3,tp,0x0
    800000f8:	4002df93          	srai	t6,t0,0x0
    800000fc:	4003dc93          	srai	s9,t2,0x0
    80000100:	400d5713          	srai	a4,s10,0x0
    80000104:	400dd193          	srai	gp,s11,0x0
    80000108:	40055a93          	srai	s5,a0,0x0
    8000010c:	40075413          	srai	s0,a4,0x0
    80000110:	40065b93          	srai	s7,a2,0x0
    80000114:	400c5593          	srai	a1,s8,0x0
    80000118:	0004d813          	srli	a6,s1,0x0
    8000011c:	0008d213          	srli	tp,a7,0x0
    80000120:	00095893          	srli	a7,s2,0x0
    80000124:	000add93          	srli	s11,s5,0x0
    80000128:	000bdb13          	srli	s6,s7,0x0
    8000012c:	00035513          	srli	a0,t1,0x0
    80000130:	000a5b13          	srli	s6,s4,0x0
    80000134:	000d5093          	srli	ra,s10,0x0
    80000138:	000fd293          	srli	t0,t6,0x0
    8000013c:	000cde13          	srli	t3,s9,0x0
    80000140:	000f5613          	srli	a2,t5,0x0
    80000144:	0007dd13          	srli	s10,a5,0x0
    80000148:	000fdc13          	srli	s8,t6,0x0
    8000014c:	000e5113          	srli	sp,t3,0x0
    80000150:	0001de93          	srli	t4,gp,0x0
    80000154:	0005d193          	srli	gp,a1,0x0
    80000158:	00015693          	srli	a3,sp,0x0
    8000015c:	000b5313          	srli	t1,s6,0x0
    80000160:	00085493          	srli	s1,a6,0x0
    80000164:	0006da13          	srli	s4,a3,0x0
    80000168:	0000d793          	srli	a5,ra,0x0
    8000016c:	0009df93          	srli	t6,s3,0x0
    80000170:	00045f13          	srli	t5,s0,0x0
    80000174:	000f5f13          	srli	t5,t5,0x0
    80000178:	000fd393          	srli	t2,t6,0x0
    8000017c:	000ed913          	srli	s2,t4,0x0
    80000180:	00025993          	srli	s3,tp,0x0
    80000184:	0002df93          	srli	t6,t0,0x0
    80000188:	0003dc93          	srli	s9,t2,0x0
    8000018c:	000d5713          	srli	a4,s10,0x0
    80000190:	000dd193          	srli	gp,s11,0x0
    80000194:	00055a93          	srli	s5,a0,0x0
    80000198:	00075413          	srli	s0,a4,0x0
    8000019c:	00065b93          	srli	s7,a2,0x0
    800001a0:	000c5593          	srli	a1,s8,0x0
    800001a4:	00f18e33          	add	t3,gp,a5
    800001a8:	01d60833          	add	a6,a2,t4
    800001ac:	00ad0633          	add	a2,s10,a0
    800001b0:	00e08233          	add	tp,ra,a4
    800001b4:	01238db3          	add	s11,t2,s2
    800001b8:	01ea8733          	add	a4,s5,t5
    800001bc:	01468bb3          	add	s7,a3,s4
    800001c0:	01dd8ab3          	add	s5,s11,t4
    800001c4:	9fe6                	add	t6,t6,s9
    800001c6:	00750f33          	add	t5,a0,t2
    800001ca:	008f8f33          	add	t5,t6,s0
    800001ce:	01ff8933          	add	s2,t6,t6
    800001d2:	015409b3          	add	s3,s0,s5
    800001d6:	00db83b3          	add	t2,s7,a3
    800001da:	019587b3          	add	a5,a1,s9
    800001de:	00408533          	add	a0,ra,tp
    800001e2:	00ce8133          	add	sp,t4,a2
    800001e6:	006100b3          	add	ra,sp,t1
    800001ea:	01028cb3          	add	s9,t0,a6
    800001ee:	009f00b3          	add	ra,t5,s1
    800001f2:	00278eb3          	add	t4,a5,sp
    800001f6:	016f0433          	add	s0,t5,s6
    800001fa:	9486                	add	s1,s1,ra
    800001fc:	9c72                	add	s8,s8,t3
    800001fe:	01cb08b3          	add	a7,s6,t3
    80000202:	01a98b33          	add	s6,s3,s10
    80000206:	011c06b3          	add	a3,s8,a7
    8000020a:	005a01b3          	add	gp,s4,t0
    8000020e:	932e                	add	t1,t1,a1
    80000210:	01b802b3          	add	t0,a6,s11
    80000214:	00288fb3          	add	t6,a7,sp
    80000218:	01e580b3          	add	ra,a1,t5
    8000021c:	003905b3          	add	a1,s2,gp
    80000220:	01370d33          	add	s10,a4,s3
    80000224:	01720a33          	add	s4,tp,s7
    80000228:	7ffa8f93          	addi	t6,s5,2047
    8000022c:	7ffc8f93          	addi	t6,s9,2047
    80000230:	7ffd8f13          	addi	t5,s11,2047
    80000234:	7ff90e93          	addi	t4,s2,2047
    80000238:	7ff18e13          	addi	t3,gp,2047
    8000023c:	7ffb0d93          	addi	s11,s6,2047
    80000240:	7ffc0d13          	addi	s10,s8,2047
    80000244:	7ff10c93          	addi	s9,sp,2047
    80000248:	7ff80c13          	addi	s8,a6,2047
    8000024c:	7ff88b93          	addi	s7,a7,2047
    80000250:	7ffe0b13          	addi	s6,t3,2047
    80000254:	7ffa0a93          	addi	s5,s4,2047
    80000258:	7ff98a13          	addi	s4,s3,2047
    8000025c:	7ff50993          	addi	s3,a0,2047
    80000260:	7ff58913          	addi	s2,a1,2047
    80000264:	7ff78593          	addi	a1,a5,2047
    80000268:	00168813          	addi	a6,a3,1
    8000026c:	7ff08793          	addi	a5,ra,2047
    80000270:	7ff60713          	addi	a4,a2,2047
    80000274:	7ff10693          	addi	a3,sp,2047
    80000278:	7ff48613          	addi	a2,s1,2047
    8000027c:	7ff40593          	addi	a1,s0,2047
    80000280:	80030513          	addi	a0,t1,-2048
    80000284:	7ff38493          	addi	s1,t2,2047
    80000288:	7ffb8413          	addi	s0,s7,2047
    8000028c:	7ff28393          	addi	t2,t0,2047
    80000290:	7ff20313          	addi	t1,tp,2047 # 7ff <_start-0x7ffff801>
    80000294:	7fff0293          	addi	t0,t5,2047
    80000298:	7ff08213          	addi	tp,ra,2047
    8000029c:	7ff08193          	addi	gp,ra,2047
    800002a0:	7ffd0113          	addi	sp,s10,2047
    800002a4:	7ffe8093          	addi	ra,t4,2047
    800002a8:	7ff08f13          	addi	t5,ra,2047
    800002ac:	fff70e93          	addi	t4,a4,-1
    800002b0:	88fe                	mv	a7,t6
    800002b2:	004d75b3          	and	a1,s10,tp
    800002b6:	012c7133          	and	sp,s8,s2
    800002ba:	013977b3          	and	a5,s2,s3
    800002be:	002b7b33          	and	s6,s6,sp
    800002c2:	01ee7733          	and	a4,t3,t5
    800002c6:	0154f4b3          	and	s1,s1,s5
    800002ca:	00b5f0b3          	and	ra,a1,a1
    800002ce:	003b75b3          	and	a1,s6,gp
    800002d2:	01e77333          	and	t1,a4,t5
    800002d6:	01b27233          	and	tp,tp,s11
    800002da:	0168fbb3          	and	s7,a7,s6
    800002de:	018a7833          	and	a6,s4,s8
    800002e2:	014ff533          	and	a0,t6,s4
    800002e6:	0073fa33          	and	s4,t2,t2
    800002ea:	0061f433          	and	s0,gp,t1
    800002ee:	01e57633          	and	a2,a0,t5
    800002f2:	0017f0b3          	and	ra,a5,ra
    800002f6:	00e170b3          	and	ra,sp,a4
    800002fa:	00ff73b3          	and	t2,t5,a5
    800002fe:	01c476b3          	and	a3,s0,t3
    80000302:	011afcb3          	and	s9,s5,a7
    80000306:	01e6f933          	and	s2,a3,t5
    8000030a:	019871b3          	and	gp,a6,s9
    8000030e:	005379b3          	and	s3,t1,t0
    80000312:	0179fdb3          	and	s11,s3,s7
    80000316:	01ddfd33          	and	s10,s11,t4
    8000031a:	01cdf2b3          	and	t0,s11,t3
    8000031e:	008cff33          	and	t5,s9,s0
    80000322:	00cbffb3          	and	t6,s7,a2
    80000326:	00d2fb33          	and	s6,t0,a3
    8000032a:	00a5fc33          	and	s8,a1,a0
    8000032e:	01adf8b3          	and	a7,s11,s10
    80000332:	010efab3          	and	s5,t4,a6
    80000336:	01f67e33          	and	t3,a2,t6
    8000033a:	0090feb3          	and	t4,ra,s1
    8000033e:	7ffc7f93          	andi	t6,s8,2047
    80000342:	7ffefa93          	andi	s5,t4,2047
    80000346:	7ffa7f13          	andi	t5,s4,2047
    8000034a:	7ffdfe13          	andi	t3,s11,2047
    8000034e:	7ffbfe93          	andi	t4,s7,2047
    80000352:	7ffafc13          	andi	s8,s5,2047
    80000356:	7ffd7d13          	andi	s10,s10,2047
    8000035a:	7ff9fd93          	andi	s11,s3,2047
    8000035e:	7ff57993          	andi	s3,a0,2047
    80000362:	7ff77713          	andi	a4,a4,2047
    80000366:	7ff97893          	andi	a7,s2,2047
    8000036a:	7ff87b13          	andi	s6,a6,2047
    8000036e:	7ff17a13          	andi	s4,sp,2047
    80000372:	7ff6f093          	andi	ra,a3,2047
    80000376:	7ff7fb93          	andi	s7,a5,2047
    8000037a:	7ffcf913          	andi	s2,s9,2047
    8000037e:	7ffb7813          	andi	a6,s6,2047
    80000382:	7ff2fc93          	andi	s9,t0,2047
    80000386:	7ff67c93          	andi	s9,a2,2047
    8000038a:	7ff47793          	andi	a5,s0,2047
    8000038e:	7ff4f593          	andi	a1,s1,2047
    80000392:	7ff3f613          	andi	a2,t2,2047
    80000396:	7ff1f493          	andi	s1,gp,2047
    8000039a:	7ff5f393          	andi	t2,a1,2047
    8000039e:	7ff8f313          	andi	t1,a7,2047
    800003a2:	7ff27213          	andi	tp,tp,2047
    800003a6:	7ff0f313          	andi	t1,ra,2047
    800003aa:	7ff0f513          	andi	a0,ra,2047
    800003ae:	7ff0f113          	andi	sp,ra,2047
    800003b2:	7ff0f193          	andi	gp,ra,2047
    800003b6:	7ffff293          	andi	t0,t6,2047
    800003ba:	001f7413          	andi	s0,t5,1
    800003be:	8000ff93          	andi	t6,ra,-2048
    800003c2:	fff37e13          	andi	t3,t1,-1
    800003c6:	000e7693          	andi	a3,t3,0
    800003ca:	7fffff97          	auipc	t6,0x7ffff
    800003ce:	7ffffe17          	auipc	t3,0x7ffff
    800003d2:	7ffffd97          	auipc	s11,0x7ffff
    800003d6:	7ffffd17          	auipc	s10,0x7ffff
    800003da:	7ffffc97          	auipc	s9,0x7ffff
    800003de:	7ffffc97          	auipc	s9,0x7ffff
    800003e2:	7ffffc97          	auipc	s9,0x7ffff
    800003e6:	7ffffc97          	auipc	s9,0x7ffff
    800003ea:	7ffffc17          	auipc	s8,0x7ffff
    800003ee:	7ffffb97          	auipc	s7,0x7ffff
    800003f2:	7ffffb17          	auipc	s6,0x7ffff
    800003f6:	7ffffa97          	auipc	s5,0x7ffff
    800003fa:	7ffffa17          	auipc	s4,0x7ffff
    800003fe:	7ffff917          	auipc	s2,0x7ffff
    80000402:	00000797          	auipc	a5,0x0
    80000406:	7ffff997          	auipc	s3,0x7ffff
    8000040a:	7ffff097          	auipc	ra,0x7ffff
    8000040e:	7ffff317          	auipc	t1,0x7ffff
    80000412:	7ffff617          	auipc	a2,0x7ffff
    80000416:	7ffff597          	auipc	a1,0x7ffff
    8000041a:	7ffff497          	auipc	s1,0x7ffff
    8000041e:	7ffff517          	auipc	a0,0x7ffff
    80000422:	7ffff417          	auipc	s0,0x7ffff
    80000426:	7ffff217          	auipc	tp,0x7ffff
    8000042a:	7ffff197          	auipc	gp,0x7ffff
    8000042e:	7ffff197          	auipc	gp,0x7ffff
    80000432:	7ffff117          	auipc	sp,0x7ffff
    80000436:	7ffff817          	auipc	a6,0x7ffff
    8000043a:	7fffff17          	auipc	t5,0x7ffff
    8000043e:	7ffff397          	auipc	t2,0x7ffff
    80000442:	7ffff297          	auipc	t0,0x7ffff
    80000446:	7ffff897          	auipc	a7,0x7ffff
    8000044a:	80000717          	auipc	a4,0x80000
    8000044e:	00001e97          	auipc	t4,0x1
    80000452:	fffff697          	auipc	a3,0xfffff
    80000456:	50f9                	li	ra,-2
    80000458:	5179                	li	sp,-2
    8000045a:	51f9                	li	gp,-2
    8000045c:	5279                	li	tp,-2
    8000045e:	52f9                	li	t0,-2
    80000460:	00df8263          	beq	t6,a3,80000464 <_start+0x464>
    80000464:	008b0263          	beq	s6,s0,80000468 <_start+0x468>
    80000468:	005d0263          	beq	s10,t0,8000046c <_start+0x46c>
    8000046c:	00760263          	beq	a2,t2,80000470 <_start+0x470>
    80000470:	00158263          	beq	a1,ra,80000474 <_start+0x474>
    80000474:	00440263          	beq	s0,tp,80000478 <_start+0x478>
    80000478:	00818263          	beq	gp,s0,8000047c <_start+0x47c>
    8000047c:	006e0263          	beq	t3,t1,80000480 <_start+0x480>
    80000480:	001e8263          	beq	t4,ra,80000484 <_start+0x484>
    80000484:	00950263          	beq	a0,s1,80000488 <_start+0x488>
    80000488:	00a38263          	beq	t2,a0,8000048c <_start+0x48c>
    8000048c:	003a8263          	beq	s5,gp,80000490 <_start+0x490>
    80000490:	00298263          	beq	s3,sp,80000494 <_start+0x494>
    80000494:	001f0263          	beq	t5,ra,80000498 <_start+0x498>
    80000498:	00470263          	beq	a4,tp,8000049c <_start+0x49c>
    8000049c:	00b88263          	beq	a7,a1,800004a0 <_start+0x4a0>
    800004a0:	00ca0263          	beq	s4,a2,800004a4 <_start+0x4a4>
    800004a4:	00e78263          	beq	a5,a4,800004a8 <_start+0x4a8>
    800004a8:	00f30263          	beq	t1,a5,800004ac <_start+0x4ac>
    800004ac:	01008263          	beq	ra,a6,800004b0 <_start+0x4b0>
    800004b0:	01108263          	beq	ra,a7,800004b4 <_start+0x4b4>
    800004b4:	01290263          	beq	s2,s2,800004b8 <_start+0x4b8>
    800004b8:	01468263          	beq	a3,s4,800004bc <_start+0x4bc>
    800004bc:	01328263          	beq	t0,s3,800004c0 <_start+0x4c0>
    800004c0:	01520263          	beq	tp,s5,800004c4 <_start+0x4c4>
    800004c4:	01640263          	beq	s0,s6,800004c8 <_start+0x4c8>
    800004c8:	017b8263          	beq	s7,s7,800004cc <_start+0x4cc>
    800004cc:	01838263          	beq	t2,s8,800004d0 <_start+0x4d0>
    800004d0:	01980263          	beq	a6,s9,800004d4 <_start+0x4d4>
    800004d4:	01a48263          	beq	s1,s10,800004d8 <_start+0x4d8>
    800004d8:	01bc0263          	beq	s8,s11,800004dc <_start+0x4dc>
    800004dc:	01cf8263          	beq	t6,t3,800004e0 <_start+0x4e0>
    800004e0:	01dc8263          	beq	s9,t4,800004e4 <_start+0x4e4>
    800004e4:	01ed8263          	beq	s11,t5,800004e8 <_start+0x4e8>
    800004e8:	01f10263          	beq	sp,t6,800004ec <_start+0x4ec>
    800004ec:	50f9                	li	ra,-2
    800004ee:	5179                	li	sp,-2
    800004f0:	51f9                	li	gp,-2
    800004f2:	5279                	li	tp,-2
    800004f4:	52f9                	li	t0,-2
    800004f6:	00dfd263          	bge	t6,a3,800004fa <_start+0x4fa>
    800004fa:	008b5263          	bge	s6,s0,800004fe <_start+0x4fe>
    800004fe:	005d5263          	bge	s10,t0,80000502 <_start+0x502>
    80000502:	00765263          	bge	a2,t2,80000506 <_start+0x506>
    80000506:	0015d263          	bge	a1,ra,8000050a <_start+0x50a>
    8000050a:	00445263          	bge	s0,tp,8000050e <_start+0x50e>
    8000050e:	0081d263          	bge	gp,s0,80000512 <_start+0x512>
    80000512:	006e5263          	bge	t3,t1,80000516 <_start+0x516>
    80000516:	001ed263          	bge	t4,ra,8000051a <_start+0x51a>
    8000051a:	00955263          	bge	a0,s1,8000051e <_start+0x51e>
    8000051e:	00a3d263          	bge	t2,a0,80000522 <_start+0x522>
    80000522:	003ad263          	bge	s5,gp,80000526 <_start+0x526>
    80000526:	0029d263          	bge	s3,sp,8000052a <_start+0x52a>
    8000052a:	001f5263          	bge	t5,ra,8000052e <_start+0x52e>
    8000052e:	00475263          	bge	a4,tp,80000532 <_start+0x532>
    80000532:	00b8d263          	bge	a7,a1,80000536 <_start+0x536>
    80000536:	00ca5263          	bge	s4,a2,8000053a <_start+0x53a>
    8000053a:	00e7d263          	bge	a5,a4,8000053e <_start+0x53e>
    8000053e:	00f35263          	bge	t1,a5,80000542 <_start+0x542>
    80000542:	0100d263          	bge	ra,a6,80000546 <_start+0x546>
    80000546:	0110d263          	bge	ra,a7,8000054a <_start+0x54a>
    8000054a:	01295263          	bge	s2,s2,8000054e <_start+0x54e>
    8000054e:	0146d263          	bge	a3,s4,80000552 <_start+0x552>
    80000552:	0132d263          	bge	t0,s3,80000556 <_start+0x556>
    80000556:	01525263          	bge	tp,s5,8000055a <_start+0x55a>
    8000055a:	01645263          	bge	s0,s6,8000055e <_start+0x55e>
    8000055e:	017bd263          	bge	s7,s7,80000562 <_start+0x562>
    80000562:	0183d263          	bge	t2,s8,80000566 <_start+0x566>
    80000566:	01985263          	bge	a6,s9,8000056a <_start+0x56a>
    8000056a:	01a4d263          	bge	s1,s10,8000056e <_start+0x56e>
    8000056e:	01bc5263          	bge	s8,s11,80000572 <_start+0x572>
    80000572:	01cfd263          	bge	t6,t3,80000576 <_start+0x576>
    80000576:	01dcd263          	bge	s9,t4,8000057a <_start+0x57a>
    8000057a:	01edd263          	bge	s11,t5,8000057e <_start+0x57e>
    8000057e:	01f15263          	bge	sp,t6,80000582 <_start+0x582>
    80000582:	50f9                	li	ra,-2
    80000584:	5179                	li	sp,-2
    80000586:	51f9                	li	gp,-2
    80000588:	5279                	li	tp,-2
    8000058a:	52f9                	li	t0,-2
    8000058c:	00dff263          	bgeu	t6,a3,80000590 <_start+0x590>
    80000590:	008b7263          	bgeu	s6,s0,80000594 <_start+0x594>
    80000594:	005d7263          	bgeu	s10,t0,80000598 <_start+0x598>
    80000598:	00767263          	bgeu	a2,t2,8000059c <_start+0x59c>
    8000059c:	0015f263          	bgeu	a1,ra,800005a0 <_start+0x5a0>
    800005a0:	00447263          	bgeu	s0,tp,800005a4 <_start+0x5a4>
    800005a4:	0081f263          	bgeu	gp,s0,800005a8 <_start+0x5a8>
    800005a8:	006e7263          	bgeu	t3,t1,800005ac <_start+0x5ac>
    800005ac:	001ef263          	bgeu	t4,ra,800005b0 <_start+0x5b0>
    800005b0:	00957263          	bgeu	a0,s1,800005b4 <_start+0x5b4>
    800005b4:	00a3f263          	bgeu	t2,a0,800005b8 <_start+0x5b8>
    800005b8:	003af263          	bgeu	s5,gp,800005bc <_start+0x5bc>
    800005bc:	0029f263          	bgeu	s3,sp,800005c0 <_start+0x5c0>
    800005c0:	001f7263          	bgeu	t5,ra,800005c4 <_start+0x5c4>
    800005c4:	00477263          	bgeu	a4,tp,800005c8 <_start+0x5c8>
    800005c8:	00b8f263          	bgeu	a7,a1,800005cc <_start+0x5cc>
    800005cc:	00ca7263          	bgeu	s4,a2,800005d0 <_start+0x5d0>
    800005d0:	00e7f263          	bgeu	a5,a4,800005d4 <_start+0x5d4>
    800005d4:	00f37263          	bgeu	t1,a5,800005d8 <_start+0x5d8>
    800005d8:	0100f263          	bgeu	ra,a6,800005dc <_start+0x5dc>
    800005dc:	0110f263          	bgeu	ra,a7,800005e0 <_start+0x5e0>
    800005e0:	01297263          	bgeu	s2,s2,800005e4 <_start+0x5e4>
    800005e4:	0146f263          	bgeu	a3,s4,800005e8 <_start+0x5e8>
    800005e8:	0132f263          	bgeu	t0,s3,800005ec <_start+0x5ec>
    800005ec:	01527263          	bgeu	tp,s5,800005f0 <_start+0x5f0>
    800005f0:	01647263          	bgeu	s0,s6,800005f4 <_start+0x5f4>
    800005f4:	017bf263          	bgeu	s7,s7,800005f8 <_start+0x5f8>
    800005f8:	0183f263          	bgeu	t2,s8,800005fc <_start+0x5fc>
    800005fc:	01987263          	bgeu	a6,s9,80000600 <_start+0x600>
    80000600:	01a4f263          	bgeu	s1,s10,80000604 <_start+0x604>
    80000604:	01bc7263          	bgeu	s8,s11,80000608 <_start+0x608>
    80000608:	01cff263          	bgeu	t6,t3,8000060c <_start+0x60c>
    8000060c:	01dcf263          	bgeu	s9,t4,80000610 <_start+0x610>
    80000610:	01edf263          	bgeu	s11,t5,80000614 <_start+0x614>
    80000614:	01f17263          	bgeu	sp,t6,80000618 <_start+0x618>
    80000618:	50f9                	li	ra,-2
    8000061a:	5179                	li	sp,-2
    8000061c:	51f9                	li	gp,-2
    8000061e:	5279                	li	tp,-2
    80000620:	52f9                	li	t0,-2
    80000622:	00dfc263          	blt	t6,a3,80000626 <_start+0x626>
    80000626:	008b4263          	blt	s6,s0,8000062a <_start+0x62a>
    8000062a:	005d4263          	blt	s10,t0,8000062e <_start+0x62e>
    8000062e:	00764263          	blt	a2,t2,80000632 <_start+0x632>
    80000632:	0015c263          	blt	a1,ra,80000636 <_start+0x636>
    80000636:	00444263          	blt	s0,tp,8000063a <_start+0x63a>
    8000063a:	0081c263          	blt	gp,s0,8000063e <_start+0x63e>
    8000063e:	006e4263          	blt	t3,t1,80000642 <_start+0x642>
    80000642:	001ec263          	blt	t4,ra,80000646 <_start+0x646>
    80000646:	00954263          	blt	a0,s1,8000064a <_start+0x64a>
    8000064a:	00a3c263          	blt	t2,a0,8000064e <_start+0x64e>
    8000064e:	003ac263          	blt	s5,gp,80000652 <_start+0x652>
    80000652:	0029c263          	blt	s3,sp,80000656 <_start+0x656>
    80000656:	001f4263          	blt	t5,ra,8000065a <_start+0x65a>
    8000065a:	00474263          	blt	a4,tp,8000065e <_start+0x65e>
    8000065e:	00b8c263          	blt	a7,a1,80000662 <_start+0x662>
    80000662:	00ca4263          	blt	s4,a2,80000666 <_start+0x666>
    80000666:	00e7c263          	blt	a5,a4,8000066a <_start+0x66a>
    8000066a:	00f34263          	blt	t1,a5,8000066e <_start+0x66e>
    8000066e:	0100c263          	blt	ra,a6,80000672 <_start+0x672>
    80000672:	0110c263          	blt	ra,a7,80000676 <_start+0x676>
    80000676:	01294263          	blt	s2,s2,8000067a <_start+0x67a>
    8000067a:	0146c263          	blt	a3,s4,8000067e <_start+0x67e>
    8000067e:	0132c263          	blt	t0,s3,80000682 <_start+0x682>
    80000682:	01524263          	blt	tp,s5,80000686 <_start+0x686>
    80000686:	01644263          	blt	s0,s6,8000068a <_start+0x68a>
    8000068a:	017bc263          	blt	s7,s7,8000068e <_start+0x68e>
    8000068e:	0183c263          	blt	t2,s8,80000692 <_start+0x692>
    80000692:	01984263          	blt	a6,s9,80000696 <_start+0x696>
    80000696:	01a4c263          	blt	s1,s10,8000069a <_start+0x69a>
    8000069a:	01bc4263          	blt	s8,s11,8000069e <_start+0x69e>
    8000069e:	01cfc263          	blt	t6,t3,800006a2 <_start+0x6a2>
    800006a2:	01dcc263          	blt	s9,t4,800006a6 <_start+0x6a6>
    800006a6:	01edc263          	blt	s11,t5,800006aa <_start+0x6aa>
    800006aa:	01f14263          	blt	sp,t6,800006ae <_start+0x6ae>
    800006ae:	50f9                	li	ra,-2
    800006b0:	5179                	li	sp,-2
    800006b2:	51f9                	li	gp,-2
    800006b4:	5279                	li	tp,-2
    800006b6:	52f9                	li	t0,-2
    800006b8:	00dfe263          	bltu	t6,a3,800006bc <_start+0x6bc>
    800006bc:	008b6263          	bltu	s6,s0,800006c0 <_start+0x6c0>
    800006c0:	005d6263          	bltu	s10,t0,800006c4 <_start+0x6c4>
    800006c4:	00766263          	bltu	a2,t2,800006c8 <_start+0x6c8>
    800006c8:	0015e263          	bltu	a1,ra,800006cc <_start+0x6cc>
    800006cc:	00446263          	bltu	s0,tp,800006d0 <_start+0x6d0>
    800006d0:	0081e263          	bltu	gp,s0,800006d4 <_start+0x6d4>
    800006d4:	006e6263          	bltu	t3,t1,800006d8 <_start+0x6d8>
    800006d8:	001ee263          	bltu	t4,ra,800006dc <_start+0x6dc>
    800006dc:	00956263          	bltu	a0,s1,800006e0 <_start+0x6e0>
    800006e0:	00a3e263          	bltu	t2,a0,800006e4 <_start+0x6e4>
    800006e4:	003ae263          	bltu	s5,gp,800006e8 <_start+0x6e8>
    800006e8:	0029e263          	bltu	s3,sp,800006ec <_start+0x6ec>
    800006ec:	001f6263          	bltu	t5,ra,800006f0 <_start+0x6f0>
    800006f0:	00476263          	bltu	a4,tp,800006f4 <_start+0x6f4>
    800006f4:	00b8e263          	bltu	a7,a1,800006f8 <_start+0x6f8>
    800006f8:	00ca6263          	bltu	s4,a2,800006fc <_start+0x6fc>
    800006fc:	00e7e263          	bltu	a5,a4,80000700 <_start+0x700>
    80000700:	00f36263          	bltu	t1,a5,80000704 <_start+0x704>
    80000704:	0100e263          	bltu	ra,a6,80000708 <_start+0x708>
    80000708:	0110e263          	bltu	ra,a7,8000070c <_start+0x70c>
    8000070c:	01296263          	bltu	s2,s2,80000710 <_start+0x710>
    80000710:	0146e263          	bltu	a3,s4,80000714 <_start+0x714>
    80000714:	0132e263          	bltu	t0,s3,80000718 <_start+0x718>
    80000718:	01526263          	bltu	tp,s5,8000071c <_start+0x71c>
    8000071c:	01646263          	bltu	s0,s6,80000720 <_start+0x720>
    80000720:	017be263          	bltu	s7,s7,80000724 <_start+0x724>
    80000724:	0183e263          	bltu	t2,s8,80000728 <_start+0x728>
    80000728:	01986263          	bltu	a6,s9,8000072c <_start+0x72c>
    8000072c:	01a4e263          	bltu	s1,s10,80000730 <_start+0x730>
    80000730:	01bc6263          	bltu	s8,s11,80000734 <_start+0x734>
    80000734:	01cfe263          	bltu	t6,t3,80000738 <_start+0x738>
    80000738:	01dce263          	bltu	s9,t4,8000073c <_start+0x73c>
    8000073c:	01ede263          	bltu	s11,t5,80000740 <_start+0x740>
    80000740:	01f16263          	bltu	sp,t6,80000744 <_start+0x744>
    80000744:	50f9                	li	ra,-2
    80000746:	5179                	li	sp,-2
    80000748:	51f9                	li	gp,-2
    8000074a:	5279                	li	tp,-2
    8000074c:	52f9                	li	t0,-2
    8000074e:	00df9263          	bne	t6,a3,80000752 <_start+0x752>
    80000752:	008b1263          	bne	s6,s0,80000756 <_start+0x756>
    80000756:	005d1263          	bne	s10,t0,8000075a <_start+0x75a>
    8000075a:	00761263          	bne	a2,t2,8000075e <_start+0x75e>
    8000075e:	00159263          	bne	a1,ra,80000762 <_start+0x762>
    80000762:	00441263          	bne	s0,tp,80000766 <_start+0x766>
    80000766:	00819263          	bne	gp,s0,8000076a <_start+0x76a>
    8000076a:	006e1263          	bne	t3,t1,8000076e <_start+0x76e>
    8000076e:	001e9263          	bne	t4,ra,80000772 <_start+0x772>
    80000772:	00951263          	bne	a0,s1,80000776 <_start+0x776>
    80000776:	00a39263          	bne	t2,a0,8000077a <_start+0x77a>
    8000077a:	003a9263          	bne	s5,gp,8000077e <_start+0x77e>
    8000077e:	00299263          	bne	s3,sp,80000782 <_start+0x782>
    80000782:	001f1263          	bne	t5,ra,80000786 <_start+0x786>
    80000786:	00471263          	bne	a4,tp,8000078a <_start+0x78a>
    8000078a:	00b89263          	bne	a7,a1,8000078e <_start+0x78e>
    8000078e:	00ca1263          	bne	s4,a2,80000792 <_start+0x792>
    80000792:	00e79263          	bne	a5,a4,80000796 <_start+0x796>
    80000796:	00f31263          	bne	t1,a5,8000079a <_start+0x79a>
    8000079a:	01009263          	bne	ra,a6,8000079e <_start+0x79e>
    8000079e:	01109263          	bne	ra,a7,800007a2 <_start+0x7a2>
    800007a2:	01291263          	bne	s2,s2,800007a6 <_start+0x7a6>
    800007a6:	01469263          	bne	a3,s4,800007aa <_start+0x7aa>
    800007aa:	01329263          	bne	t0,s3,800007ae <_start+0x7ae>
    800007ae:	01521263          	bne	tp,s5,800007b2 <_start+0x7b2>
    800007b2:	01641263          	bne	s0,s6,800007b6 <_start+0x7b6>
    800007b6:	017b9263          	bne	s7,s7,800007ba <_start+0x7ba>
    800007ba:	01839263          	bne	t2,s8,800007be <_start+0x7be>
    800007be:	01981263          	bne	a6,s9,800007c2 <_start+0x7c2>
    800007c2:	01a49263          	bne	s1,s10,800007c6 <_start+0x7c6>
    800007c6:	01bc1263          	bne	s8,s11,800007ca <_start+0x7ca>
    800007ca:	01cf9263          	bne	t6,t3,800007ce <_start+0x7ce>
    800007ce:	01dc9263          	bne	s9,t4,800007d2 <_start+0x7d2>
    800007d2:	01ed9263          	bne	s11,t5,800007d6 <_start+0x7d6>
    800007d6:	01f11263          	bne	sp,t6,800007da <_start+0x7da>
    800007da:	7ffffc37          	lui	s8,0x7ffff
    800007de:	7ffffcb7          	lui	s9,0x7ffff
    800007e2:	7ffffe37          	lui	t3,0x7ffff
    800007e6:	7ffff4b7          	lui	s1,0x7ffff
    800007ea:	7ffff9b7          	lui	s3,0x7ffff
    800007ee:	7fffff37          	lui	t5,0x7ffff
    800007f2:	7ffff5b7          	lui	a1,0x7ffff
    800007f6:	7ffff637          	lui	a2,0x7ffff
    800007fa:	7ffff8b7          	lui	a7,0x7ffff
    800007fe:	7ffff137          	lui	sp,0x7ffff
    80000802:	7ffff837          	lui	a6,0x7ffff
    80000806:	7ffff437          	lui	s0,0x7ffff
    8000080a:	7ffffbb7          	lui	s7,0x7ffff
    8000080e:	7ffffa37          	lui	s4,0x7ffff
    80000812:	7ffff7b7          	lui	a5,0x7ffff
    80000816:	7ffff937          	lui	s2,0x7ffff
    8000081a:	7ffff3b7          	lui	t2,0x7ffff
    8000081e:	7ffff0b7          	lui	ra,0x7ffff
    80000822:	7fffffb7          	lui	t6,0x7ffff
    80000826:	7ffff337          	lui	t1,0x7ffff
    8000082a:	7ffff537          	lui	a0,0x7ffff
    8000082e:	7ffffb37          	lui	s6,0x7ffff
    80000832:	7ffffd37          	lui	s10,0x7ffff
    80000836:	7ffffdb7          	lui	s11,0x7ffff
    8000083a:	7ffff2b7          	lui	t0,0x7ffff
    8000083e:	7ffff737          	lui	a4,0x7ffff
    80000842:	7ffff937          	lui	s2,0x7ffff
    80000846:	797d                	lui	s2,0xfffff
    80000848:	7ffff937          	lui	s2,0x7ffff
    8000084c:	7ffff937          	lui	s2,0x7ffff
    80000850:	7ffffeb7          	lui	t4,0x7ffff
    80000854:	7ffff237          	lui	tp,0x7ffff
    80000858:	800006b7          	lui	a3,0x80000
    8000085c:	6185                	lui	gp,0x1
    8000085e:	00000ab7          	lui	s5,0x0
    80000862:	004d65b3          	or	a1,s10,tp
    80000866:	012c6133          	or	sp,s8,s2
    8000086a:	013967b3          	or	a5,s2,s3
    8000086e:	002b6b33          	or	s6,s6,sp
    80000872:	01ee6733          	or	a4,t3,t5
    80000876:	0154e4b3          	or	s1,s1,s5
    8000087a:	00b5e0b3          	or	ra,a1,a1
    8000087e:	003b65b3          	or	a1,s6,gp
    80000882:	01e76333          	or	t1,a4,t5
    80000886:	01b26233          	or	tp,tp,s11
    8000088a:	0168ebb3          	or	s7,a7,s6
    8000088e:	018a6833          	or	a6,s4,s8
    80000892:	014fe533          	or	a0,t6,s4
    80000896:	0073ea33          	or	s4,t2,t2
    8000089a:	0061e433          	or	s0,gp,t1
    8000089e:	01e56633          	or	a2,a0,t5
    800008a2:	0017e0b3          	or	ra,a5,ra
    800008a6:	00e160b3          	or	ra,sp,a4
    800008aa:	00ff63b3          	or	t2,t5,a5
    800008ae:	01c466b3          	or	a3,s0,t3
    800008b2:	011aecb3          	or	s9,s5,a7
    800008b6:	01e6e933          	or	s2,a3,t5
    800008ba:	019861b3          	or	gp,a6,s9
    800008be:	005369b3          	or	s3,t1,t0
    800008c2:	0179edb3          	or	s11,s3,s7
    800008c6:	01dded33          	or	s10,s11,t4
    800008ca:	01cde2b3          	or	t0,s11,t3
    800008ce:	008cef33          	or	t5,s9,s0
    800008d2:	00cbefb3          	or	t6,s7,a2
    800008d6:	00d2eb33          	or	s6,t0,a3
    800008da:	00a5ec33          	or	s8,a1,a0
    800008de:	01ade8b3          	or	a7,s11,s10
    800008e2:	010eeab3          	or	s5,t4,a6
    800008e6:	01f66e33          	or	t3,a2,t6
    800008ea:	0090eeb3          	or	t4,ra,s1
    800008ee:	7ff7ec93          	ori	s9,a5,2047
    800008f2:	7ff8ea93          	ori	s5,a7,2047
    800008f6:	7ff36213          	ori	tp,t1,2047
    800008fa:	7ffd6993          	ori	s3,s10,2047
    800008fe:	7ff3ef93          	ori	t6,t2,2047
    80000902:	7ff56593          	ori	a1,a0,2047
    80000906:	7ff46413          	ori	s0,s0,2047
    8000090a:	7ff66413          	ori	s0,a2,2047
    8000090e:	7ff9e713          	ori	a4,s3,2047
    80000912:	7ff76813          	ori	a6,a4,2047
    80000916:	7ff46a13          	ori	s4,s0,2047
    8000091a:	7ff4eb93          	ori	s7,s1,2047
    8000091e:	7ffe6913          	ori	s2,t3,2047
    80000922:	7ff2e313          	ori	t1,t0,2047
    80000926:	7ff1e393          	ori	t2,gp,2047
    8000092a:	7ff5e513          	ori	a0,a1,2047
    8000092e:	7ff56793          	ori	a5,a0,2047
    80000932:	7ffe6613          	ori	a2,t3,2047
    80000936:	7fffe093          	ori	ra,t6,2047
    8000093a:	7ffe6c13          	ori	s8,t3,2047
    8000093e:	7ff6e693          	ori	a3,a3,2047
    80000942:	7ff16213          	ori	tp,sp,2047
    80000946:	7ff0e813          	ori	a6,ra,2047
    8000094a:	7ffc6113          	ori	sp,s8,2047
    8000094e:	7ffaef93          	ori	t6,s5,2047
    80000952:	7ff26d13          	ori	s10,tp,2047
    80000956:	7ffce493          	ori	s1,s9,2047
    8000095a:	7ffdee93          	ori	t4,s11,2047
    8000095e:	7ffbe293          	ori	t0,s7,2047
    80000962:	7ffeee13          	ori	t3,t4,2047
    80000966:	7fff6f13          	ori	t5,t5,2047
    8000096a:	00186193          	ori	gp,a6,1
    8000096e:	800a6893          	ori	a7,s4,-2048
    80000972:	fff96d93          	ori	s11,s2,-1
    80000976:	000b6b13          	ori	s6,s6,0
    8000097a:	004d15b3          	sll	a1,s10,tp
    8000097e:	012c1133          	sll	sp,s8,s2
    80000982:	013917b3          	sll	a5,s2,s3
    80000986:	002b1b33          	sll	s6,s6,sp
    8000098a:	01ee1733          	sll	a4,t3,t5
    8000098e:	015494b3          	sll	s1,s1,s5
    80000992:	00b590b3          	sll	ra,a1,a1
    80000996:	003b15b3          	sll	a1,s6,gp
    8000099a:	01e71333          	sll	t1,a4,t5
    8000099e:	01b21233          	sll	tp,tp,s11
    800009a2:	01689bb3          	sll	s7,a7,s6
    800009a6:	018a1833          	sll	a6,s4,s8
    800009aa:	014f9533          	sll	a0,t6,s4
    800009ae:	00739a33          	sll	s4,t2,t2
    800009b2:	00619433          	sll	s0,gp,t1
    800009b6:	01e51633          	sll	a2,a0,t5
    800009ba:	001790b3          	sll	ra,a5,ra
    800009be:	00e110b3          	sll	ra,sp,a4
    800009c2:	00ff13b3          	sll	t2,t5,a5
    800009c6:	01c416b3          	sll	a3,s0,t3
    800009ca:	011a9cb3          	sll	s9,s5,a7
    800009ce:	01e69933          	sll	s2,a3,t5
    800009d2:	019811b3          	sll	gp,a6,s9
    800009d6:	005319b3          	sll	s3,t1,t0
    800009da:	01799db3          	sll	s11,s3,s7
    800009de:	01dd9d33          	sll	s10,s11,t4
    800009e2:	01cd92b3          	sll	t0,s11,t3
    800009e6:	008c9f33          	sll	t5,s9,s0
    800009ea:	00cb9fb3          	sll	t6,s7,a2
    800009ee:	00d29b33          	sll	s6,t0,a3
    800009f2:	00a59c33          	sll	s8,a1,a0
    800009f6:	01ad98b3          	sll	a7,s11,s10
    800009fa:	010e9ab3          	sll	s5,t4,a6
    800009fe:	01f61e33          	sll	t3,a2,t6
    80000a02:	00909eb3          	sll	t4,ra,s1
    80000a06:	004d25b3          	slt	a1,s10,tp
    80000a0a:	012c2133          	slt	sp,s8,s2
    80000a0e:	013927b3          	slt	a5,s2,s3
    80000a12:	002b2b33          	slt	s6,s6,sp
    80000a16:	01ee2733          	slt	a4,t3,t5
    80000a1a:	0154a4b3          	slt	s1,s1,s5
    80000a1e:	00b5a0b3          	slt	ra,a1,a1
    80000a22:	003b25b3          	slt	a1,s6,gp
    80000a26:	01e72333          	slt	t1,a4,t5
    80000a2a:	01b22233          	slt	tp,tp,s11
    80000a2e:	0168abb3          	slt	s7,a7,s6
    80000a32:	018a2833          	slt	a6,s4,s8
    80000a36:	014fa533          	slt	a0,t6,s4
    80000a3a:	0073aa33          	slt	s4,t2,t2
    80000a3e:	0061a433          	slt	s0,gp,t1
    80000a42:	01e52633          	slt	a2,a0,t5
    80000a46:	0017a0b3          	slt	ra,a5,ra
    80000a4a:	00e120b3          	slt	ra,sp,a4
    80000a4e:	00ff23b3          	slt	t2,t5,a5
    80000a52:	01c426b3          	slt	a3,s0,t3
    80000a56:	011aacb3          	slt	s9,s5,a7
    80000a5a:	01e6a933          	slt	s2,a3,t5
    80000a5e:	019821b3          	slt	gp,a6,s9
    80000a62:	005329b3          	slt	s3,t1,t0
    80000a66:	0179adb3          	slt	s11,s3,s7
    80000a6a:	01ddad33          	slt	s10,s11,t4
    80000a6e:	01cda2b3          	slt	t0,s11,t3
    80000a72:	008caf33          	slt	t5,s9,s0
    80000a76:	00cbafb3          	slt	t6,s7,a2
    80000a7a:	00d2ab33          	slt	s6,t0,a3
    80000a7e:	00a5ac33          	slt	s8,a1,a0
    80000a82:	01ada8b3          	slt	a7,s11,s10
    80000a86:	010eaab3          	slt	s5,t4,a6
    80000a8a:	01f62e33          	slt	t3,a2,t6
    80000a8e:	0090aeb3          	slt	t4,ra,s1
    80000a92:	7ffa2113          	slti	sp,s4,2047
    80000a96:	7ff3aa13          	slti	s4,t2,2047
    80000a9a:	7ffc2d93          	slti	s11,s8,2047
    80000a9e:	7fff2f13          	slti	t5,t5,2047
    80000aa2:	7ffeaf93          	slti	t6,t4,2047
    80000aa6:	7fffaf13          	slti	t5,t6,2047
    80000aaa:	7ffe2e93          	slti	t4,t3,2047
    80000aae:	7ff52e93          	slti	t4,a0,2047
    80000ab2:	7ff92c13          	slti	s8,s2,2047
    80000ab6:	7ffd2b93          	slti	s7,s10,2047
    80000aba:	7ff8ab13          	slti	s6,a7,2047
    80000abe:	7ffb2a93          	slti	s5,s6,2047
    80000ac2:	7ffba813          	slti	a6,s7,2047
    80000ac6:	7ffaa213          	slti	tp,s5,2047
    80000aca:	7ff7a693          	slti	a3,a5,2047
    80000ace:	7ff3ac93          	slti	s9,t2,2047
    80000ad2:	7ff62593          	slti	a1,a2,2047
    80000ad6:	7ff1a713          	slti	a4,gp,2047
    80000ada:	7ff6a313          	slti	t1,a3,2047
    80000ade:	7ff2a993          	slti	s3,t0,2047
    80000ae2:	7ff32093          	slti	ra,t1,2047
    80000ae6:	7ff5a893          	slti	a7,a1,2047
    80000aea:	7ff22613          	slti	a2,tp,2047
    80000aee:	7ff12413          	slti	s0,sp,2047
    80000af2:	7ff82413          	slti	s0,a6,2047
    80000af6:	7ff72913          	slti	s2,a4,2047
    80000afa:	7ff42793          	slti	a5,s0,2047
    80000afe:	7ffca393          	slti	t2,s9,2047
    80000b02:	7ff3ad13          	slti	s10,t2,2047
    80000b06:	7ff0a513          	slti	a0,ra,2047
    80000b0a:	7ff4a193          	slti	gp,s1,2047
    80000b0e:	0013a493          	slti	s1,t2,1
    80000b12:	8009af93          	slti	t6,s3,-2048
    80000b16:	fffda293          	slti	t0,s11,-1
    80000b1a:	0003ae13          	slti	t3,t2,0
    80000b1e:	7ff93b93          	sltiu	s7,s2,2047
    80000b22:	7fffbb93          	sltiu	s7,t6,2047
    80000b26:	7ffdbf13          	sltiu	t5,s11,2047
    80000b2a:	7ffd3e93          	sltiu	t4,s10,2047
    80000b2e:	7ff9be13          	sltiu	t3,s3,2047
    80000b32:	7ffa3d93          	sltiu	s11,s4,2047
    80000b36:	7ffabd13          	sltiu	s10,s5,2047
    80000b3a:	7fff3c93          	sltiu	s9,t5,2047
    80000b3e:	7ff5bc13          	sltiu	s8,a1,2047
    80000b42:	7ff83b13          	sltiu	s6,a6,2047
    80000b46:	7ff7ba93          	sltiu	s5,a5,2047
    80000b4a:	7fff3a13          	sltiu	s4,t5,2047
    80000b4e:	7ff73993          	sltiu	s3,a4,2047
    80000b52:	7ffe3913          	sltiu	s2,t3,2047
    80000b56:	7ff6b893          	sltiu	a7,a3,2047
    80000b5a:	7fffb813          	sltiu	a6,t6,2047
    80000b5e:	7ff13793          	sltiu	a5,sp,2047
    80000b62:	7ff4b713          	sltiu	a4,s1,2047
    80000b66:	7ff53613          	sltiu	a2,a0,2047
    80000b6a:	7ff43593          	sltiu	a1,s0,2047
    80000b6e:	7ff33493          	sltiu	s1,t1,2047
    80000b72:	7ff1b393          	sltiu	t2,gp,2047
    80000b76:	7ff23313          	sltiu	t1,tp,2047
    80000b7a:	7ff8b293          	sltiu	t0,a7,2047
    80000b7e:	7ff2bf93          	sltiu	t6,t0,2047
    80000b82:	7ff3b513          	sltiu	a0,t2,2047
    80000b86:	7ff1b413          	sltiu	s0,gp,2047
    80000b8a:	7ff63213          	sltiu	tp,a2,2047
    80000b8e:	7ffbb693          	sltiu	a3,s7,2047
    80000b92:	7ff0b193          	sltiu	gp,ra,2047
    80000b96:	7ffcb113          	sltiu	sp,s9,2047
    80000b9a:	001eb093          	seqz	ra,t4
    80000b9e:	800b3f13          	sltiu	t5,s6,-2048
    80000ba2:	fff8bc93          	sltiu	s9,a7,-1
    80000ba6:	000c3893          	sltiu	a7,s8,0
    80000baa:	004d35b3          	sltu	a1,s10,tp
    80000bae:	012c3133          	sltu	sp,s8,s2
    80000bb2:	013937b3          	sltu	a5,s2,s3
    80000bb6:	002b3b33          	sltu	s6,s6,sp
    80000bba:	01ee3733          	sltu	a4,t3,t5
    80000bbe:	0154b4b3          	sltu	s1,s1,s5
    80000bc2:	00b5b0b3          	sltu	ra,a1,a1
    80000bc6:	003b35b3          	sltu	a1,s6,gp
    80000bca:	01e73333          	sltu	t1,a4,t5
    80000bce:	01b23233          	sltu	tp,tp,s11
    80000bd2:	0168bbb3          	sltu	s7,a7,s6
    80000bd6:	018a3833          	sltu	a6,s4,s8
    80000bda:	014fb533          	sltu	a0,t6,s4
    80000bde:	0073ba33          	sltu	s4,t2,t2
    80000be2:	0061b433          	sltu	s0,gp,t1
    80000be6:	01e53633          	sltu	a2,a0,t5
    80000bea:	0017b0b3          	sltu	ra,a5,ra
    80000bee:	00e130b3          	sltu	ra,sp,a4
    80000bf2:	00ff33b3          	sltu	t2,t5,a5
    80000bf6:	01c436b3          	sltu	a3,s0,t3
    80000bfa:	011abcb3          	sltu	s9,s5,a7
    80000bfe:	01e6b933          	sltu	s2,a3,t5
    80000c02:	019831b3          	sltu	gp,a6,s9
    80000c06:	005339b3          	sltu	s3,t1,t0
    80000c0a:	0179bdb3          	sltu	s11,s3,s7
    80000c0e:	01ddbd33          	sltu	s10,s11,t4
    80000c12:	01cdb2b3          	sltu	t0,s11,t3
    80000c16:	008cbf33          	sltu	t5,s9,s0
    80000c1a:	00cbbfb3          	sltu	t6,s7,a2
    80000c1e:	00d2bb33          	sltu	s6,t0,a3
    80000c22:	00a5bc33          	sltu	s8,a1,a0
    80000c26:	01adb8b3          	sltu	a7,s11,s10
    80000c2a:	010ebab3          	sltu	s5,t4,a6
    80000c2e:	01f63e33          	sltu	t3,a2,t6
    80000c32:	0090beb3          	sltu	t4,ra,s1
    80000c36:	404d55b3          	sra	a1,s10,tp
    80000c3a:	412c5133          	sra	sp,s8,s2
    80000c3e:	413957b3          	sra	a5,s2,s3
    80000c42:	402b5b33          	sra	s6,s6,sp
    80000c46:	41ee5733          	sra	a4,t3,t5
    80000c4a:	4154d4b3          	sra	s1,s1,s5
    80000c4e:	40b5d0b3          	sra	ra,a1,a1
    80000c52:	403b55b3          	sra	a1,s6,gp
    80000c56:	41e75333          	sra	t1,a4,t5
    80000c5a:	41b25233          	sra	tp,tp,s11
    80000c5e:	4168dbb3          	sra	s7,a7,s6
    80000c62:	418a5833          	sra	a6,s4,s8
    80000c66:	414fd533          	sra	a0,t6,s4
    80000c6a:	4073da33          	sra	s4,t2,t2
    80000c6e:	4061d433          	sra	s0,gp,t1
    80000c72:	41e55633          	sra	a2,a0,t5
    80000c76:	4017d0b3          	sra	ra,a5,ra
    80000c7a:	40e150b3          	sra	ra,sp,a4
    80000c7e:	40ff53b3          	sra	t2,t5,a5
    80000c82:	41c456b3          	sra	a3,s0,t3
    80000c86:	411adcb3          	sra	s9,s5,a7
    80000c8a:	41e6d933          	sra	s2,a3,t5
    80000c8e:	419851b3          	sra	gp,a6,s9
    80000c92:	405359b3          	sra	s3,t1,t0
    80000c96:	4179ddb3          	sra	s11,s3,s7
    80000c9a:	41dddd33          	sra	s10,s11,t4
    80000c9e:	41cdd2b3          	sra	t0,s11,t3
    80000ca2:	408cdf33          	sra	t5,s9,s0
    80000ca6:	40cbdfb3          	sra	t6,s7,a2
    80000caa:	40d2db33          	sra	s6,t0,a3
    80000cae:	40a5dc33          	sra	s8,a1,a0
    80000cb2:	41add8b3          	sra	a7,s11,s10
    80000cb6:	410edab3          	sra	s5,t4,a6
    80000cba:	41f65e33          	sra	t3,a2,t6
    80000cbe:	4090deb3          	sra	t4,ra,s1
    80000cc2:	004d55b3          	srl	a1,s10,tp
    80000cc6:	012c5133          	srl	sp,s8,s2
    80000cca:	013957b3          	srl	a5,s2,s3
    80000cce:	002b5b33          	srl	s6,s6,sp
    80000cd2:	01ee5733          	srl	a4,t3,t5
    80000cd6:	0154d4b3          	srl	s1,s1,s5
    80000cda:	00b5d0b3          	srl	ra,a1,a1
    80000cde:	003b55b3          	srl	a1,s6,gp
    80000ce2:	01e75333          	srl	t1,a4,t5
    80000ce6:	01b25233          	srl	tp,tp,s11
    80000cea:	0168dbb3          	srl	s7,a7,s6
    80000cee:	018a5833          	srl	a6,s4,s8
    80000cf2:	014fd533          	srl	a0,t6,s4
    80000cf6:	0073da33          	srl	s4,t2,t2
    80000cfa:	0061d433          	srl	s0,gp,t1
    80000cfe:	01e55633          	srl	a2,a0,t5
    80000d02:	0017d0b3          	srl	ra,a5,ra
    80000d06:	00e150b3          	srl	ra,sp,a4
    80000d0a:	00ff53b3          	srl	t2,t5,a5
    80000d0e:	01c456b3          	srl	a3,s0,t3
    80000d12:	011adcb3          	srl	s9,s5,a7
    80000d16:	01e6d933          	srl	s2,a3,t5
    80000d1a:	019851b3          	srl	gp,a6,s9
    80000d1e:	005359b3          	srl	s3,t1,t0
    80000d22:	0179ddb3          	srl	s11,s3,s7
    80000d26:	01dddd33          	srl	s10,s11,t4
    80000d2a:	01cdd2b3          	srl	t0,s11,t3
    80000d2e:	008cdf33          	srl	t5,s9,s0
    80000d32:	00cbdfb3          	srl	t6,s7,a2
    80000d36:	00d2db33          	srl	s6,t0,a3
    80000d3a:	00a5dc33          	srl	s8,a1,a0
    80000d3e:	01add8b3          	srl	a7,s11,s10
    80000d42:	010edab3          	srl	s5,t4,a6
    80000d46:	01f65e33          	srl	t3,a2,t6
    80000d4a:	0090deb3          	srl	t4,ra,s1
    80000d4e:	404d05b3          	sub	a1,s10,tp
    80000d52:	412c0133          	sub	sp,s8,s2
    80000d56:	413907b3          	sub	a5,s2,s3
    80000d5a:	402b0b33          	sub	s6,s6,sp
    80000d5e:	41ee0733          	sub	a4,t3,t5
    80000d62:	415484b3          	sub	s1,s1,s5
    80000d66:	40b580b3          	sub	ra,a1,a1
    80000d6a:	403b05b3          	sub	a1,s6,gp
    80000d6e:	41e70333          	sub	t1,a4,t5
    80000d72:	41b20233          	sub	tp,tp,s11
    80000d76:	41688bb3          	sub	s7,a7,s6
    80000d7a:	418a0833          	sub	a6,s4,s8
    80000d7e:	414f8533          	sub	a0,t6,s4
    80000d82:	40738a33          	sub	s4,t2,t2
    80000d86:	40618433          	sub	s0,gp,t1
    80000d8a:	41e50633          	sub	a2,a0,t5
    80000d8e:	401780b3          	sub	ra,a5,ra
    80000d92:	40e100b3          	sub	ra,sp,a4
    80000d96:	40ff03b3          	sub	t2,t5,a5
    80000d9a:	41c406b3          	sub	a3,s0,t3
    80000d9e:	411a8cb3          	sub	s9,s5,a7
    80000da2:	41e68933          	sub	s2,a3,t5
    80000da6:	419801b3          	sub	gp,a6,s9
    80000daa:	405309b3          	sub	s3,t1,t0
    80000dae:	41798db3          	sub	s11,s3,s7
    80000db2:	41dd8d33          	sub	s10,s11,t4
    80000db6:	41cd82b3          	sub	t0,s11,t3
    80000dba:	408c8f33          	sub	t5,s9,s0
    80000dbe:	40cb8fb3          	sub	t6,s7,a2
    80000dc2:	40d28b33          	sub	s6,t0,a3
    80000dc6:	40a58c33          	sub	s8,a1,a0
    80000dca:	41ad88b3          	sub	a7,s11,s10
    80000dce:	410e8ab3          	sub	s5,t4,a6
    80000dd2:	41f60e33          	sub	t3,a2,t6
    80000dd6:	40908eb3          	sub	t4,ra,s1
    80000dda:	004d45b3          	xor	a1,s10,tp
    80000dde:	012c4133          	xor	sp,s8,s2
    80000de2:	013947b3          	xor	a5,s2,s3
    80000de6:	002b4b33          	xor	s6,s6,sp
    80000dea:	01ee4733          	xor	a4,t3,t5
    80000dee:	0154c4b3          	xor	s1,s1,s5
    80000df2:	00b5c0b3          	xor	ra,a1,a1
    80000df6:	003b45b3          	xor	a1,s6,gp
    80000dfa:	01e74333          	xor	t1,a4,t5
    80000dfe:	01b24233          	xor	tp,tp,s11
    80000e02:	0168cbb3          	xor	s7,a7,s6
    80000e06:	018a4833          	xor	a6,s4,s8
    80000e0a:	014fc533          	xor	a0,t6,s4
    80000e0e:	0073ca33          	xor	s4,t2,t2
    80000e12:	0061c433          	xor	s0,gp,t1
    80000e16:	01e54633          	xor	a2,a0,t5
    80000e1a:	0017c0b3          	xor	ra,a5,ra
    80000e1e:	00e140b3          	xor	ra,sp,a4
    80000e22:	00ff43b3          	xor	t2,t5,a5
    80000e26:	01c446b3          	xor	a3,s0,t3
    80000e2a:	011accb3          	xor	s9,s5,a7
    80000e2e:	01e6c933          	xor	s2,a3,t5
    80000e32:	019841b3          	xor	gp,a6,s9
    80000e36:	005349b3          	xor	s3,t1,t0
    80000e3a:	0179cdb3          	xor	s11,s3,s7
    80000e3e:	01ddcd33          	xor	s10,s11,t4
    80000e42:	01cdc2b3          	xor	t0,s11,t3
    80000e46:	008ccf33          	xor	t5,s9,s0
    80000e4a:	00cbcfb3          	xor	t6,s7,a2
    80000e4e:	00d2cb33          	xor	s6,t0,a3
    80000e52:	00a5cc33          	xor	s8,a1,a0
    80000e56:	01adc8b3          	xor	a7,s11,s10
    80000e5a:	010ecab3          	xor	s5,t4,a6
    80000e5e:	01f64e33          	xor	t3,a2,t6
    80000e62:	0090ceb3          	xor	t4,ra,s1
    80000e66:	7ff9c113          	xori	sp,s3,2047
    80000e6a:	7ffec113          	xori	sp,t4,2047
    80000e6e:	7ffbc793          	xori	a5,s7,2047
    80000e72:	7ff24113          	xori	sp,tp,2047
    80000e76:	7ff34b13          	xori	s6,t1,2047
    80000e7a:	7ffbc493          	xori	s1,s7,2047
    80000e7e:	7ffccf93          	xori	t6,s9,2047
    80000e82:	7ffc4c13          	xori	s8,s8,2047
    80000e86:	7ff8cb13          	xori	s6,a7,2047
    80000e8a:	7ffb4713          	xori	a4,s6,2047
    80000e8e:	7ffa4f13          	xori	t5,s4,2047
    80000e92:	7ff4c613          	xori	a2,s1,2047
    80000e96:	7ff3ce13          	xori	t3,t2,2047
    80000e9a:	7ff6cb93          	xori	s7,a3,2047
    80000e9e:	7ff1c913          	xori	s2,gp,2047
    80000ea2:	7ff54d13          	xori	s10,a0,2047
    80000ea6:	7ff64693          	xori	a3,a2,2047
    80000eaa:	7ffd4893          	xori	a7,s10,2047
    80000eae:	7ff0c193          	xori	gp,ra,2047
    80000eb2:	7ffc4313          	xori	t1,s8,2047
    80000eb6:	7ff5c293          	xori	t0,a1,2047
    80000eba:	7ff94813          	xori	a6,s2,2047
    80000ebe:	7fffce93          	xori	t4,t6,2047
    80000ec2:	7ff14513          	xori	a0,sp,2047
    80000ec6:	7ffdca93          	xori	s5,s11,2047
    80000eca:	7ff2c093          	xori	ra,t0,2047
    80000ece:	7ff44393          	xori	t2,s0,2047
    80000ed2:	7ffaca13          	xori	s4,s5,2047
    80000ed6:	7ffc4993          	xori	s3,s8,2047
    80000eda:	7ff74413          	xori	s0,a4,2047
    80000ede:	7ff84213          	xori	tp,a6,2047
    80000ee2:	001f4813          	xori	a6,t5,1
    80000ee6:	8007cd93          	xori	s11,a5,-2048
    80000eea:	fff74c93          	not	s9,a4
    80000eee:	000e4593          	xori	a1,t3,0

0000000080000ef2 <exit>:
    80000ef2:	4281                	li	t0,0
    80000ef4:	0286                	slli	t0,t0,0x1
    80000ef6:	0012e293          	ori	t0,t0,1
    80000efa:	00000317          	auipc	t1,0x0
    80000efe:	04630313          	addi	t1,t1,70 # 80000f40 <tohost>
    80000f02:	00533023          	sd	t0,0(t1)

0000000080000f06 <spin>:
    80000f06:	a001                	j	80000f06 <spin>
