
/root/zaozi/rvprobe/src/cases/output/elf/coverage/RVM.elf:     file format elf64-littleriscv


Disassembly of section .text:

0000000080000000 <_start>:
    80000000:	024d05b3          	mul	a1,s10,tp
    80000004:	032c0133          	mul	sp,s8,s2
    80000008:	033907b3          	mul	a5,s2,s3
    8000000c:	022b0b33          	mul	s6,s6,sp
    80000010:	03ee0733          	mul	a4,t3,t5
    80000014:	035484b3          	mul	s1,s1,s5
    80000018:	02b580b3          	mul	ra,a1,a1
    8000001c:	023b05b3          	mul	a1,s6,gp
    80000020:	03e70333          	mul	t1,a4,t5
    80000024:	03b20233          	mul	tp,tp,s11
    80000028:	03688bb3          	mul	s7,a7,s6
    8000002c:	038a0833          	mul	a6,s4,s8
    80000030:	034f8533          	mul	a0,t6,s4
    80000034:	02738a33          	mul	s4,t2,t2
    80000038:	02618433          	mul	s0,gp,t1
    8000003c:	03e50633          	mul	a2,a0,t5
    80000040:	021780b3          	mul	ra,a5,ra
    80000044:	02e100b3          	mul	ra,sp,a4
    80000048:	02ff03b3          	mul	t2,t5,a5
    8000004c:	03c406b3          	mul	a3,s0,t3
    80000050:	031a8cb3          	mul	s9,s5,a7
    80000054:	03e68933          	mul	s2,a3,t5
    80000058:	039801b3          	mul	gp,a6,s9
    8000005c:	025309b3          	mul	s3,t1,t0
    80000060:	03798db3          	mul	s11,s3,s7
    80000064:	03dd8d33          	mul	s10,s11,t4
    80000068:	03cd82b3          	mul	t0,s11,t3
    8000006c:	028c8f33          	mul	t5,s9,s0
    80000070:	02cb8fb3          	mul	t6,s7,a2
    80000074:	02d28b33          	mul	s6,t0,a3
    80000078:	02a58c33          	mul	s8,a1,a0
    8000007c:	03ad88b3          	mul	a7,s11,s10
    80000080:	030e8ab3          	mul	s5,t4,a6
    80000084:	03f60e33          	mul	t3,a2,t6
    80000088:	02908eb3          	mul	t4,ra,s1
    8000008c:	024d15b3          	mulh	a1,s10,tp
    80000090:	032c1133          	mulh	sp,s8,s2
    80000094:	033917b3          	mulh	a5,s2,s3
    80000098:	022b1b33          	mulh	s6,s6,sp
    8000009c:	03ee1733          	mulh	a4,t3,t5
    800000a0:	035494b3          	mulh	s1,s1,s5
    800000a4:	02b590b3          	mulh	ra,a1,a1
    800000a8:	023b15b3          	mulh	a1,s6,gp
    800000ac:	03e71333          	mulh	t1,a4,t5
    800000b0:	03b21233          	mulh	tp,tp,s11
    800000b4:	03689bb3          	mulh	s7,a7,s6
    800000b8:	038a1833          	mulh	a6,s4,s8
    800000bc:	034f9533          	mulh	a0,t6,s4
    800000c0:	02739a33          	mulh	s4,t2,t2
    800000c4:	02619433          	mulh	s0,gp,t1
    800000c8:	03e51633          	mulh	a2,a0,t5
    800000cc:	021790b3          	mulh	ra,a5,ra
    800000d0:	02e110b3          	mulh	ra,sp,a4
    800000d4:	02ff13b3          	mulh	t2,t5,a5
    800000d8:	03c416b3          	mulh	a3,s0,t3
    800000dc:	031a9cb3          	mulh	s9,s5,a7
    800000e0:	03e69933          	mulh	s2,a3,t5
    800000e4:	039811b3          	mulh	gp,a6,s9
    800000e8:	025319b3          	mulh	s3,t1,t0
    800000ec:	03799db3          	mulh	s11,s3,s7
    800000f0:	03dd9d33          	mulh	s10,s11,t4
    800000f4:	03cd92b3          	mulh	t0,s11,t3
    800000f8:	028c9f33          	mulh	t5,s9,s0
    800000fc:	02cb9fb3          	mulh	t6,s7,a2
    80000100:	02d29b33          	mulh	s6,t0,a3
    80000104:	02a59c33          	mulh	s8,a1,a0
    80000108:	03ad98b3          	mulh	a7,s11,s10
    8000010c:	030e9ab3          	mulh	s5,t4,a6
    80000110:	03f61e33          	mulh	t3,a2,t6
    80000114:	02909eb3          	mulh	t4,ra,s1
    80000118:	024d25b3          	mulhsu	a1,s10,tp
    8000011c:	032c2133          	mulhsu	sp,s8,s2
    80000120:	033927b3          	mulhsu	a5,s2,s3
    80000124:	022b2b33          	mulhsu	s6,s6,sp
    80000128:	03ee2733          	mulhsu	a4,t3,t5
    8000012c:	0354a4b3          	mulhsu	s1,s1,s5
    80000130:	02b5a0b3          	mulhsu	ra,a1,a1
    80000134:	023b25b3          	mulhsu	a1,s6,gp
    80000138:	03e72333          	mulhsu	t1,a4,t5
    8000013c:	03b22233          	mulhsu	tp,tp,s11
    80000140:	0368abb3          	mulhsu	s7,a7,s6
    80000144:	038a2833          	mulhsu	a6,s4,s8
    80000148:	034fa533          	mulhsu	a0,t6,s4
    8000014c:	0273aa33          	mulhsu	s4,t2,t2
    80000150:	0261a433          	mulhsu	s0,gp,t1
    80000154:	03e52633          	mulhsu	a2,a0,t5
    80000158:	0217a0b3          	mulhsu	ra,a5,ra
    8000015c:	02e120b3          	mulhsu	ra,sp,a4
    80000160:	02ff23b3          	mulhsu	t2,t5,a5
    80000164:	03c426b3          	mulhsu	a3,s0,t3
    80000168:	031aacb3          	mulhsu	s9,s5,a7
    8000016c:	03e6a933          	mulhsu	s2,a3,t5
    80000170:	039821b3          	mulhsu	gp,a6,s9
    80000174:	025329b3          	mulhsu	s3,t1,t0
    80000178:	0379adb3          	mulhsu	s11,s3,s7
    8000017c:	03ddad33          	mulhsu	s10,s11,t4
    80000180:	03cda2b3          	mulhsu	t0,s11,t3
    80000184:	028caf33          	mulhsu	t5,s9,s0
    80000188:	02cbafb3          	mulhsu	t6,s7,a2
    8000018c:	02d2ab33          	mulhsu	s6,t0,a3
    80000190:	02a5ac33          	mulhsu	s8,a1,a0
    80000194:	03ada8b3          	mulhsu	a7,s11,s10
    80000198:	030eaab3          	mulhsu	s5,t4,a6
    8000019c:	03f62e33          	mulhsu	t3,a2,t6
    800001a0:	0290aeb3          	mulhsu	t4,ra,s1
    800001a4:	024d35b3          	mulhu	a1,s10,tp
    800001a8:	032c3133          	mulhu	sp,s8,s2
    800001ac:	033937b3          	mulhu	a5,s2,s3
    800001b0:	022b3b33          	mulhu	s6,s6,sp
    800001b4:	03ee3733          	mulhu	a4,t3,t5
    800001b8:	0354b4b3          	mulhu	s1,s1,s5
    800001bc:	02b5b0b3          	mulhu	ra,a1,a1
    800001c0:	023b35b3          	mulhu	a1,s6,gp
    800001c4:	03e73333          	mulhu	t1,a4,t5
    800001c8:	03b23233          	mulhu	tp,tp,s11
    800001cc:	0368bbb3          	mulhu	s7,a7,s6
    800001d0:	038a3833          	mulhu	a6,s4,s8
    800001d4:	034fb533          	mulhu	a0,t6,s4
    800001d8:	0273ba33          	mulhu	s4,t2,t2
    800001dc:	0261b433          	mulhu	s0,gp,t1
    800001e0:	03e53633          	mulhu	a2,a0,t5
    800001e4:	0217b0b3          	mulhu	ra,a5,ra
    800001e8:	02e130b3          	mulhu	ra,sp,a4
    800001ec:	02ff33b3          	mulhu	t2,t5,a5
    800001f0:	03c436b3          	mulhu	a3,s0,t3
    800001f4:	031abcb3          	mulhu	s9,s5,a7
    800001f8:	03e6b933          	mulhu	s2,a3,t5
    800001fc:	039831b3          	mulhu	gp,a6,s9
    80000200:	025339b3          	mulhu	s3,t1,t0
    80000204:	0379bdb3          	mulhu	s11,s3,s7
    80000208:	03ddbd33          	mulhu	s10,s11,t4
    8000020c:	03cdb2b3          	mulhu	t0,s11,t3
    80000210:	028cbf33          	mulhu	t5,s9,s0
    80000214:	02cbbfb3          	mulhu	t6,s7,a2
    80000218:	02d2bb33          	mulhu	s6,t0,a3
    8000021c:	02a5bc33          	mulhu	s8,a1,a0
    80000220:	03adb8b3          	mulhu	a7,s11,s10
    80000224:	030ebab3          	mulhu	s5,t4,a6
    80000228:	03f63e33          	mulhu	t3,a2,t6
    8000022c:	0290beb3          	mulhu	t4,ra,s1
    80000230:	024d45b3          	div	a1,s10,tp
    80000234:	032c4133          	div	sp,s8,s2
    80000238:	033947b3          	div	a5,s2,s3
    8000023c:	022b4b33          	div	s6,s6,sp
    80000240:	03ee4733          	div	a4,t3,t5
    80000244:	0354c4b3          	div	s1,s1,s5
    80000248:	02b5c0b3          	div	ra,a1,a1
    8000024c:	023b45b3          	div	a1,s6,gp
    80000250:	03e74333          	div	t1,a4,t5
    80000254:	03b24233          	div	tp,tp,s11
    80000258:	0368cbb3          	div	s7,a7,s6
    8000025c:	038a4833          	div	a6,s4,s8
    80000260:	034fc533          	div	a0,t6,s4
    80000264:	0273ca33          	div	s4,t2,t2
    80000268:	0261c433          	div	s0,gp,t1
    8000026c:	03e54633          	div	a2,a0,t5
    80000270:	0217c0b3          	div	ra,a5,ra
    80000274:	02e140b3          	div	ra,sp,a4
    80000278:	02ff43b3          	div	t2,t5,a5
    8000027c:	03c446b3          	div	a3,s0,t3
    80000280:	031accb3          	div	s9,s5,a7
    80000284:	03e6c933          	div	s2,a3,t5
    80000288:	039841b3          	div	gp,a6,s9
    8000028c:	025349b3          	div	s3,t1,t0
    80000290:	0379cdb3          	div	s11,s3,s7
    80000294:	03ddcd33          	div	s10,s11,t4
    80000298:	03cdc2b3          	div	t0,s11,t3
    8000029c:	028ccf33          	div	t5,s9,s0
    800002a0:	02cbcfb3          	div	t6,s7,a2
    800002a4:	02d2cb33          	div	s6,t0,a3
    800002a8:	02a5cc33          	div	s8,a1,a0
    800002ac:	03adc8b3          	div	a7,s11,s10
    800002b0:	030ecab3          	div	s5,t4,a6
    800002b4:	03f64e33          	div	t3,a2,t6
    800002b8:	0290ceb3          	div	t4,ra,s1
    800002bc:	024d55b3          	divu	a1,s10,tp
    800002c0:	032c5133          	divu	sp,s8,s2
    800002c4:	033957b3          	divu	a5,s2,s3
    800002c8:	022b5b33          	divu	s6,s6,sp
    800002cc:	03ee5733          	divu	a4,t3,t5
    800002d0:	0354d4b3          	divu	s1,s1,s5
    800002d4:	02b5d0b3          	divu	ra,a1,a1
    800002d8:	023b55b3          	divu	a1,s6,gp
    800002dc:	03e75333          	divu	t1,a4,t5
    800002e0:	03b25233          	divu	tp,tp,s11
    800002e4:	0368dbb3          	divu	s7,a7,s6
    800002e8:	038a5833          	divu	a6,s4,s8
    800002ec:	034fd533          	divu	a0,t6,s4
    800002f0:	0273da33          	divu	s4,t2,t2
    800002f4:	0261d433          	divu	s0,gp,t1
    800002f8:	03e55633          	divu	a2,a0,t5
    800002fc:	0217d0b3          	divu	ra,a5,ra
    80000300:	02e150b3          	divu	ra,sp,a4
    80000304:	02ff53b3          	divu	t2,t5,a5
    80000308:	03c456b3          	divu	a3,s0,t3
    8000030c:	031adcb3          	divu	s9,s5,a7
    80000310:	03e6d933          	divu	s2,a3,t5
    80000314:	039851b3          	divu	gp,a6,s9
    80000318:	025359b3          	divu	s3,t1,t0
    8000031c:	0379ddb3          	divu	s11,s3,s7
    80000320:	03dddd33          	divu	s10,s11,t4
    80000324:	03cdd2b3          	divu	t0,s11,t3
    80000328:	028cdf33          	divu	t5,s9,s0
    8000032c:	02cbdfb3          	divu	t6,s7,a2
    80000330:	02d2db33          	divu	s6,t0,a3
    80000334:	02a5dc33          	divu	s8,a1,a0
    80000338:	03add8b3          	divu	a7,s11,s10
    8000033c:	030edab3          	divu	s5,t4,a6
    80000340:	03f65e33          	divu	t3,a2,t6
    80000344:	0290deb3          	divu	t4,ra,s1
    80000348:	024d65b3          	rem	a1,s10,tp
    8000034c:	032c6133          	rem	sp,s8,s2
    80000350:	033967b3          	rem	a5,s2,s3
    80000354:	022b6b33          	rem	s6,s6,sp
    80000358:	03ee6733          	rem	a4,t3,t5
    8000035c:	0354e4b3          	rem	s1,s1,s5
    80000360:	02b5e0b3          	rem	ra,a1,a1
    80000364:	023b65b3          	rem	a1,s6,gp
    80000368:	03e76333          	rem	t1,a4,t5
    8000036c:	03b26233          	rem	tp,tp,s11
    80000370:	0368ebb3          	rem	s7,a7,s6
    80000374:	038a6833          	rem	a6,s4,s8
    80000378:	034fe533          	rem	a0,t6,s4
    8000037c:	0273ea33          	rem	s4,t2,t2
    80000380:	0261e433          	rem	s0,gp,t1
    80000384:	03e56633          	rem	a2,a0,t5
    80000388:	0217e0b3          	rem	ra,a5,ra
    8000038c:	02e160b3          	rem	ra,sp,a4
    80000390:	02ff63b3          	rem	t2,t5,a5
    80000394:	03c466b3          	rem	a3,s0,t3
    80000398:	031aecb3          	rem	s9,s5,a7
    8000039c:	03e6e933          	rem	s2,a3,t5
    800003a0:	039861b3          	rem	gp,a6,s9
    800003a4:	025369b3          	rem	s3,t1,t0
    800003a8:	0379edb3          	rem	s11,s3,s7
    800003ac:	03dded33          	rem	s10,s11,t4
    800003b0:	03cde2b3          	rem	t0,s11,t3
    800003b4:	028cef33          	rem	t5,s9,s0
    800003b8:	02cbefb3          	rem	t6,s7,a2
    800003bc:	02d2eb33          	rem	s6,t0,a3
    800003c0:	02a5ec33          	rem	s8,a1,a0
    800003c4:	03ade8b3          	rem	a7,s11,s10
    800003c8:	030eeab3          	rem	s5,t4,a6
    800003cc:	03f66e33          	rem	t3,a2,t6
    800003d0:	0290eeb3          	rem	t4,ra,s1
    800003d4:	024d75b3          	remu	a1,s10,tp
    800003d8:	032c7133          	remu	sp,s8,s2
    800003dc:	033977b3          	remu	a5,s2,s3
    800003e0:	022b7b33          	remu	s6,s6,sp
    800003e4:	03ee7733          	remu	a4,t3,t5
    800003e8:	0354f4b3          	remu	s1,s1,s5
    800003ec:	02b5f0b3          	remu	ra,a1,a1
    800003f0:	023b75b3          	remu	a1,s6,gp
    800003f4:	03e77333          	remu	t1,a4,t5
    800003f8:	03b27233          	remu	tp,tp,s11
    800003fc:	0368fbb3          	remu	s7,a7,s6
    80000400:	038a7833          	remu	a6,s4,s8
    80000404:	034ff533          	remu	a0,t6,s4
    80000408:	0273fa33          	remu	s4,t2,t2
    8000040c:	0261f433          	remu	s0,gp,t1
    80000410:	03e57633          	remu	a2,a0,t5
    80000414:	0217f0b3          	remu	ra,a5,ra
    80000418:	02e170b3          	remu	ra,sp,a4
    8000041c:	02ff73b3          	remu	t2,t5,a5
    80000420:	03c476b3          	remu	a3,s0,t3
    80000424:	031afcb3          	remu	s9,s5,a7
    80000428:	03e6f933          	remu	s2,a3,t5
    8000042c:	039871b3          	remu	gp,a6,s9
    80000430:	025379b3          	remu	s3,t1,t0
    80000434:	0379fdb3          	remu	s11,s3,s7
    80000438:	03ddfd33          	remu	s10,s11,t4
    8000043c:	03cdf2b3          	remu	t0,s11,t3
    80000440:	028cff33          	remu	t5,s9,s0
    80000444:	02cbffb3          	remu	t6,s7,a2
    80000448:	02d2fb33          	remu	s6,t0,a3
    8000044c:	02a5fc33          	remu	s8,a1,a0
    80000450:	03adf8b3          	remu	a7,s11,s10
    80000454:	030efab3          	remu	s5,t4,a6
    80000458:	03f67e33          	remu	t3,a2,t6
    8000045c:	0290feb3          	remu	t4,ra,s1
    80000460:	024d05bb          	mulw	a1,s10,tp
    80000464:	032c013b          	mulw	sp,s8,s2
    80000468:	033907bb          	mulw	a5,s2,s3
    8000046c:	022b0b3b          	mulw	s6,s6,sp
    80000470:	03ee073b          	mulw	a4,t3,t5
    80000474:	035484bb          	mulw	s1,s1,s5
    80000478:	02b580bb          	mulw	ra,a1,a1
    8000047c:	023b05bb          	mulw	a1,s6,gp
    80000480:	03e7033b          	mulw	t1,a4,t5
    80000484:	03b2023b          	mulw	tp,tp,s11
    80000488:	03688bbb          	mulw	s7,a7,s6
    8000048c:	038a083b          	mulw	a6,s4,s8
    80000490:	034f853b          	mulw	a0,t6,s4
    80000494:	02738a3b          	mulw	s4,t2,t2
    80000498:	0261843b          	mulw	s0,gp,t1
    8000049c:	03e5063b          	mulw	a2,a0,t5
    800004a0:	021780bb          	mulw	ra,a5,ra
    800004a4:	02e100bb          	mulw	ra,sp,a4
    800004a8:	02ff03bb          	mulw	t2,t5,a5
    800004ac:	03c406bb          	mulw	a3,s0,t3
    800004b0:	031a8cbb          	mulw	s9,s5,a7
    800004b4:	03e6893b          	mulw	s2,a3,t5
    800004b8:	039801bb          	mulw	gp,a6,s9
    800004bc:	025309bb          	mulw	s3,t1,t0
    800004c0:	03798dbb          	mulw	s11,s3,s7
    800004c4:	03dd8d3b          	mulw	s10,s11,t4
    800004c8:	03cd82bb          	mulw	t0,s11,t3
    800004cc:	028c8f3b          	mulw	t5,s9,s0
    800004d0:	02cb8fbb          	mulw	t6,s7,a2
    800004d4:	02d28b3b          	mulw	s6,t0,a3
    800004d8:	02a58c3b          	mulw	s8,a1,a0
    800004dc:	03ad88bb          	mulw	a7,s11,s10
    800004e0:	030e8abb          	mulw	s5,t4,a6
    800004e4:	03f60e3b          	mulw	t3,a2,t6
    800004e8:	02908ebb          	mulw	t4,ra,s1
    800004ec:	024d45bb          	divw	a1,s10,tp
    800004f0:	032c413b          	divw	sp,s8,s2
    800004f4:	033947bb          	divw	a5,s2,s3
    800004f8:	022b4b3b          	divw	s6,s6,sp
    800004fc:	03ee473b          	divw	a4,t3,t5
    80000500:	0354c4bb          	divw	s1,s1,s5
    80000504:	02b5c0bb          	divw	ra,a1,a1
    80000508:	023b45bb          	divw	a1,s6,gp
    8000050c:	03e7433b          	divw	t1,a4,t5
    80000510:	03b2423b          	divw	tp,tp,s11
    80000514:	0368cbbb          	divw	s7,a7,s6
    80000518:	038a483b          	divw	a6,s4,s8
    8000051c:	034fc53b          	divw	a0,t6,s4
    80000520:	0273ca3b          	divw	s4,t2,t2
    80000524:	0261c43b          	divw	s0,gp,t1
    80000528:	03e5463b          	divw	a2,a0,t5
    8000052c:	0217c0bb          	divw	ra,a5,ra
    80000530:	02e140bb          	divw	ra,sp,a4
    80000534:	02ff43bb          	divw	t2,t5,a5
    80000538:	03c446bb          	divw	a3,s0,t3
    8000053c:	031accbb          	divw	s9,s5,a7
    80000540:	03e6c93b          	divw	s2,a3,t5
    80000544:	039841bb          	divw	gp,a6,s9
    80000548:	025349bb          	divw	s3,t1,t0
    8000054c:	0379cdbb          	divw	s11,s3,s7
    80000550:	03ddcd3b          	divw	s10,s11,t4
    80000554:	03cdc2bb          	divw	t0,s11,t3
    80000558:	028ccf3b          	divw	t5,s9,s0
    8000055c:	02cbcfbb          	divw	t6,s7,a2
    80000560:	02d2cb3b          	divw	s6,t0,a3
    80000564:	02a5cc3b          	divw	s8,a1,a0
    80000568:	03adc8bb          	divw	a7,s11,s10
    8000056c:	030ecabb          	divw	s5,t4,a6
    80000570:	03f64e3b          	divw	t3,a2,t6
    80000574:	0290cebb          	divw	t4,ra,s1
    80000578:	024d55bb          	divuw	a1,s10,tp
    8000057c:	032c513b          	divuw	sp,s8,s2
    80000580:	033957bb          	divuw	a5,s2,s3
    80000584:	022b5b3b          	divuw	s6,s6,sp
    80000588:	03ee573b          	divuw	a4,t3,t5
    8000058c:	0354d4bb          	divuw	s1,s1,s5
    80000590:	02b5d0bb          	divuw	ra,a1,a1
    80000594:	023b55bb          	divuw	a1,s6,gp
    80000598:	03e7533b          	divuw	t1,a4,t5
    8000059c:	03b2523b          	divuw	tp,tp,s11
    800005a0:	0368dbbb          	divuw	s7,a7,s6
    800005a4:	038a583b          	divuw	a6,s4,s8
    800005a8:	034fd53b          	divuw	a0,t6,s4
    800005ac:	0273da3b          	divuw	s4,t2,t2
    800005b0:	0261d43b          	divuw	s0,gp,t1
    800005b4:	03e5563b          	divuw	a2,a0,t5
    800005b8:	0217d0bb          	divuw	ra,a5,ra
    800005bc:	02e150bb          	divuw	ra,sp,a4
    800005c0:	02ff53bb          	divuw	t2,t5,a5
    800005c4:	03c456bb          	divuw	a3,s0,t3
    800005c8:	031adcbb          	divuw	s9,s5,a7
    800005cc:	03e6d93b          	divuw	s2,a3,t5
    800005d0:	039851bb          	divuw	gp,a6,s9
    800005d4:	025359bb          	divuw	s3,t1,t0
    800005d8:	0379ddbb          	divuw	s11,s3,s7
    800005dc:	03dddd3b          	divuw	s10,s11,t4
    800005e0:	03cdd2bb          	divuw	t0,s11,t3
    800005e4:	028cdf3b          	divuw	t5,s9,s0
    800005e8:	02cbdfbb          	divuw	t6,s7,a2
    800005ec:	02d2db3b          	divuw	s6,t0,a3
    800005f0:	02a5dc3b          	divuw	s8,a1,a0
    800005f4:	03add8bb          	divuw	a7,s11,s10
    800005f8:	030edabb          	divuw	s5,t4,a6
    800005fc:	03f65e3b          	divuw	t3,a2,t6
    80000600:	0290debb          	divuw	t4,ra,s1
    80000604:	024d65bb          	remw	a1,s10,tp
    80000608:	032c613b          	remw	sp,s8,s2
    8000060c:	033967bb          	remw	a5,s2,s3
    80000610:	022b6b3b          	remw	s6,s6,sp
    80000614:	03ee673b          	remw	a4,t3,t5
    80000618:	0354e4bb          	remw	s1,s1,s5
    8000061c:	02b5e0bb          	remw	ra,a1,a1
    80000620:	023b65bb          	remw	a1,s6,gp
    80000624:	03e7633b          	remw	t1,a4,t5
    80000628:	03b2623b          	remw	tp,tp,s11
    8000062c:	0368ebbb          	remw	s7,a7,s6
    80000630:	038a683b          	remw	a6,s4,s8
    80000634:	034fe53b          	remw	a0,t6,s4
    80000638:	0273ea3b          	remw	s4,t2,t2
    8000063c:	0261e43b          	remw	s0,gp,t1
    80000640:	03e5663b          	remw	a2,a0,t5
    80000644:	0217e0bb          	remw	ra,a5,ra
    80000648:	02e160bb          	remw	ra,sp,a4
    8000064c:	02ff63bb          	remw	t2,t5,a5
    80000650:	03c466bb          	remw	a3,s0,t3
    80000654:	031aecbb          	remw	s9,s5,a7
    80000658:	03e6e93b          	remw	s2,a3,t5
    8000065c:	039861bb          	remw	gp,a6,s9
    80000660:	025369bb          	remw	s3,t1,t0
    80000664:	0379edbb          	remw	s11,s3,s7
    80000668:	03dded3b          	remw	s10,s11,t4
    8000066c:	03cde2bb          	remw	t0,s11,t3
    80000670:	028cef3b          	remw	t5,s9,s0
    80000674:	02cbefbb          	remw	t6,s7,a2
    80000678:	02d2eb3b          	remw	s6,t0,a3
    8000067c:	02a5ec3b          	remw	s8,a1,a0
    80000680:	03ade8bb          	remw	a7,s11,s10
    80000684:	030eeabb          	remw	s5,t4,a6
    80000688:	03f66e3b          	remw	t3,a2,t6
    8000068c:	0290eebb          	remw	t4,ra,s1
    80000690:	024d75bb          	remuw	a1,s10,tp
    80000694:	032c713b          	remuw	sp,s8,s2
    80000698:	033977bb          	remuw	a5,s2,s3
    8000069c:	022b7b3b          	remuw	s6,s6,sp
    800006a0:	03ee773b          	remuw	a4,t3,t5
    800006a4:	0354f4bb          	remuw	s1,s1,s5
    800006a8:	02b5f0bb          	remuw	ra,a1,a1
    800006ac:	023b75bb          	remuw	a1,s6,gp
    800006b0:	03e7733b          	remuw	t1,a4,t5
    800006b4:	03b2723b          	remuw	tp,tp,s11
    800006b8:	0368fbbb          	remuw	s7,a7,s6
    800006bc:	038a783b          	remuw	a6,s4,s8
    800006c0:	034ff53b          	remuw	a0,t6,s4
    800006c4:	0273fa3b          	remuw	s4,t2,t2
    800006c8:	0261f43b          	remuw	s0,gp,t1
    800006cc:	03e5763b          	remuw	a2,a0,t5
    800006d0:	0217f0bb          	remuw	ra,a5,ra
    800006d4:	02e170bb          	remuw	ra,sp,a4
    800006d8:	02ff73bb          	remuw	t2,t5,a5
    800006dc:	03c476bb          	remuw	a3,s0,t3
    800006e0:	031afcbb          	remuw	s9,s5,a7
    800006e4:	03e6f93b          	remuw	s2,a3,t5
    800006e8:	039871bb          	remuw	gp,a6,s9
    800006ec:	025379bb          	remuw	s3,t1,t0
    800006f0:	0379fdbb          	remuw	s11,s3,s7
    800006f4:	03ddfd3b          	remuw	s10,s11,t4
    800006f8:	03cdf2bb          	remuw	t0,s11,t3
    800006fc:	028cff3b          	remuw	t5,s9,s0
    80000700:	02cbffbb          	remuw	t6,s7,a2
    80000704:	02d2fb3b          	remuw	s6,t0,a3
    80000708:	02a5fc3b          	remuw	s8,a1,a0
    8000070c:	03adf8bb          	remuw	a7,s11,s10
    80000710:	030efabb          	remuw	s5,t4,a6
    80000714:	03f67e3b          	remuw	t3,a2,t6
    80000718:	0290febb          	remuw	t4,ra,s1

000000008000071c <exit>:
    8000071c:	4281                	li	t0,0
    8000071e:	0286                	slli	t0,t0,0x1
    80000720:	0012e293          	ori	t0,t0,1
    80000724:	00000317          	auipc	t1,0x0
    80000728:	01c30313          	addi	t1,t1,28 # 80000740 <tohost>
    8000072c:	00533023          	sd	t0,0(t1)

0000000080000730 <spin>:
    80000730:	a001                	j	80000730 <spin>
