
/root/zaozi/rvprobe/src/cases/output/elf/btb/BTBMretStaleSd.elf:     file format elf64-littleriscv


Disassembly of section .text:

0000000080000000 <_start>:
    80000000:	00002297          	auipc	t0,0x2
    80000004:	0e028293          	addi	t0,t0,224 # 800020e0 <trap_handler>
    80000008:	30529073          	csrw	mtvec,t0
    8000000c:	52fd                	li	t0,-1
    8000000e:	3b029073          	csrw	pmpaddr0,t0
    80000012:	42fd                	li	t0,31
    80000014:	3a029073          	csrw	pmpcfg0,t0
    80000018:	00002517          	auipc	a0,0x2
    8000001c:	fe850513          	addi	a0,a0,-24 # 80002000 <buf>
    80000020:	000385b7          	lui	a1,0x38
    80000024:	ab75859b          	addiw	a1,a1,-1353 # 37ab7 <_start-0x7ffc8549>
    80000028:	05ba                	slli	a1,a1,0xe
    8000002a:	eef58593          	addi	a1,a1,-273
    8000002e:	05a020ef          	jal	80002088 <switch_to_s_mode>
    80000032:	e10c                	sd	a1,0(a0)
    80000034:	a009                	j	80000036 <exit>

0000000080000036 <exit>:
    80000036:	4281                	li	t0,0
    80000038:	0286                	slli	t0,t0,0x1
    8000003a:	0012e293          	ori	t0,t0,1
    8000003e:	00002317          	auipc	t1,0x2
    80000042:	00230313          	addi	t1,t1,2 # 80002040 <tohost>
    80000046:	00533023          	sd	t0,0(t1)

000000008000004a <spin>:
    8000004a:	a001                	j	8000004a <spin>

000000008000004c <fail>:
    8000004c:	4285                	li	t0,1
    8000004e:	0286                	slli	t0,t0,0x1
    80000050:	0012e293          	ori	t0,t0,1
    80000054:	00002317          	auipc	t1,0x2
    80000058:	fec30313          	addi	t1,t1,-20 # 80002040 <tohost>
    8000005c:	00533023          	sd	t0,0(t1)

0000000080000060 <spin_fail>:
    80000060:	a001                	j	80000060 <spin_fail>
