
/home/clo91eaf/Project/zaozi/rvprobe/src/cases/output/elf/privilege/PMPNapotDeny.elf:     file format elf64-littleriscv


Disassembly of section .text:

0000000080000000 <_start>:
    80000000:	00000297          	auipc	t0,0x0
    80000004:	01028293          	addi	t0,t0,16 # 80000010 <trap_handler_rec>
    80000008:	30529073          	csrw	mtvec,t0
    8000000c:	a04d                	j	800000ae <trap_handler_rec_skip>
    8000000e:	0001                	nop

0000000080000010 <trap_handler_rec>:
    80000010:	341022f3          	csrr	t0,mepc
    80000014:	34202373          	csrr	t1,mcause
    80000018:	34302ef3          	csrr	t4,mtval
    8000001c:	00131f13          	slli	t5,t1,0x1
    80000020:	001f5313          	srli	t1,t5,0x1
    80000024:	4e25                	li	t3,9
    80000026:	01c30963          	beq	t1,t3,80000038 <rec_handle_ecall>
    8000002a:	00001e17          	auipc	t3,0x1
    8000002e:	fd6e0e13          	addi	t3,t3,-42 # 80001000 <trap_cause>
    80000032:	006e3023          	sd	t1,0(t3)
    80000036:	a801                	j	80000046 <rec_check_page_fault>

0000000080000038 <rec_handle_ecall>:
    80000038:	6389                	lui	t2,0x2
    8000003a:	8003839b          	addiw	t2,t2,-2048 # 1800 <_start-0x7fffe800>
    8000003e:	3003a073          	csrs	mstatus,t2
    80000042:	4391                	li	t2,4
    80000044:	a8a1                	j	8000009c <rec_update_mepc>

0000000080000046 <rec_check_page_fault>:
    80000046:	4e35                	li	t3,13
    80000048:	03c30263          	beq	t1,t3,8000006c <rec_handle_fault>
    8000004c:	4e3d                	li	t3,15
    8000004e:	01c30f63          	beq	t1,t3,8000006c <rec_handle_fault>
    80000052:	4e15                	li	t3,5
    80000054:	01c30c63          	beq	t1,t3,8000006c <rec_handle_fault>
    80000058:	4e1d                	li	t3,7
    8000005a:	01c30963          	beq	t1,t3,8000006c <rec_handle_fault>
    8000005e:	4e05                	li	t3,1
    80000060:	03c30463          	beq	t1,t3,80000088 <rec_instr_fault_len>
    80000064:	4e31                	li	t3,12
    80000066:	03c30163          	beq	t1,t3,80000088 <rec_instr_fault_len>
    8000006a:	a011                	j	8000006e <rec_original_logic>

000000008000006c <rec_handle_fault>:
    8000006c:	a009                	j	8000006e <rec_original_logic>

000000008000006e <rec_original_logic>:
    8000006e:	4389                	li	t2,2
    80000070:	4e09                	li	t3,2
    80000072:	01c30863          	beq	t1,t3,80000082 <rec_illegal_len>
    80000076:	0002de83          	lhu	t4,0(t0)
    8000007a:	a809                	j	8000008c <rec_decode_length>

000000008000007c <rec_other_len>:
    8000007c:	0002de83          	lhu	t4,0(t0)
    80000080:	a031                	j	8000008c <rec_decode_length>

0000000080000082 <rec_illegal_len>:
    80000082:	fe0e8de3          	beqz	t4,8000007c <rec_other_len>
    80000086:	a019                	j	8000008c <rec_decode_length>

0000000080000088 <rec_instr_fault_len>:
    80000088:	4391                	li	t2,4
    8000008a:	a809                	j	8000009c <rec_update_mepc>

000000008000008c <rec_decode_length>:
    8000008c:	003efe93          	andi	t4,t4,3
    80000090:	4e0d                	li	t3,3
    80000092:	01ce9463          	bne	t4,t3,8000009a <rec_compressed_len>
    80000096:	4391                	li	t2,4
    80000098:	a011                	j	8000009c <rec_update_mepc>

000000008000009a <rec_compressed_len>:
    8000009a:	4389                	li	t2,2

000000008000009c <rec_update_mepc>:
    8000009c:	929e                	add	t0,t0,t2
    8000009e:	34129073          	csrw	mepc,t0
    800000a2:	34201073          	csrw	mcause,zero
    800000a6:	34301073          	csrw	mtval,zero
    800000aa:	30200073          	mret

00000000800000ae <trap_handler_rec_skip>:
    800000ae:	00002517          	auipc	a0,0x2
    800000b2:	f5250513          	addi	a0,a0,-174 # 80002000 <buf>
    800000b6:	8109                	srli	a0,a0,0x2
    800000b8:	1ff56513          	ori	a0,a0,511
    800000bc:	3b051073          	csrw	pmpaddr0,a0
    800000c0:	52fd                	li	t0,-1
    800000c2:	3b129073          	csrw	pmpaddr1,t0
    800000c6:	6289                	lui	t0,0x2
    800000c8:	f192829b          	addiw	t0,t0,-231 # 1f19 <_start-0x7fffe0e7>
    800000cc:	3a029073          	csrw	pmpcfg0,t0
    800000d0:	30201073          	csrw	medeleg,zero
    800000d4:	30301073          	csrw	mideleg,zero
    800000d8:	72f9                	lui	t0,0xffffe
    800000da:	7ff2829b          	addiw	t0,t0,2047 # ffffffffffffe7ff <fromhost+0xffffffff7fffb7bf>
    800000de:	30002373          	csrr	t1,mstatus
    800000e2:	00537333          	and	t1,t1,t0
    800000e6:	6385                	lui	t2,0x1
    800000e8:	8003839b          	addiw	t2,t2,-2048 # 800 <_start-0x7ffff800>
    800000ec:	00736333          	or	t1,t1,t2
    800000f0:	30031073          	csrw	mstatus,t1
    800000f4:	00000297          	auipc	t0,0x0
    800000f8:	01028293          	addi	t0,t0,16 # 80000104 <s_code>
    800000fc:	34129073          	csrw	mepc,t0
    80000100:	30200073          	mret

0000000080000104 <s_code>:
    80000104:	00002517          	auipc	a0,0x2
    80000108:	efc50513          	addi	a0,a0,-260 # 80002000 <buf>
    8000010c:	c10c                	sw	a1,0(a0)
    8000010e:	00000073          	ecall

0000000080000112 <m_check>:
    80000112:	00001517          	auipc	a0,0x1
    80000116:	eee50513          	addi	a0,a0,-274 # 80001000 <trap_cause>
    8000011a:	610c                	ld	a1,0(a0)
    8000011c:	461d                	li	a2,7
    8000011e:	00c59363          	bne	a1,a2,80000124 <fail>
    80000122:	a821                	j	8000013a <exit>

0000000080000124 <fail>:
    80000124:	4285                	li	t0,1
    80000126:	0286                	slli	t0,t0,0x1
    80000128:	0012e293          	ori	t0,t0,1
    8000012c:	00003317          	auipc	t1,0x3
    80000130:	ed430313          	addi	t1,t1,-300 # 80003000 <tohost>
    80000134:	00533023          	sd	t0,0(t1)

0000000080000138 <spin_fail>:
    80000138:	a001                	j	80000138 <spin_fail>

000000008000013a <exit>:
    8000013a:	4281                	li	t0,0
    8000013c:	0286                	slli	t0,t0,0x1
    8000013e:	0012e293          	ori	t0,t0,1
    80000142:	00003317          	auipc	t1,0x3
    80000146:	ebe30313          	addi	t1,t1,-322 # 80003000 <tohost>
    8000014a:	00533023          	sd	t0,0(t1)

000000008000014e <spin>:
    8000014e:	a001                	j	8000014e <spin>
