
/home/clo91eaf/Project/zaozi/rvprobe/src/cases/output/elf/privilege/PrivilegeSv39FpSmoke.elf:     file format elf64-littleriscv


Disassembly of section .text:

0000000080000000 <_start>:
    80000000:	00000297          	auipc	t0,0x0
    80000004:	11c28293          	addi	t0,t0,284 # 8000011c <trap_handler>
    80000008:	30529073          	csrw	mtvec,t0
    8000000c:	300022f3          	csrr	t0,mstatus
    80000010:	630d                	lui	t1,0x3
    80000012:	0062e2b3          	or	t0,t0,t1
    80000016:	30029073          	csrw	mstatus,t0
    8000001a:	00301073          	fscsr	zero
    8000001e:	34001073          	csrw	mscratch,zero
    80000022:	52fd                	li	t0,-1
    80000024:	3b029073          	csrw	pmpaddr0,t0
    80000028:	42fd                	li	t0,31
    8000002a:	3a029073          	csrw	pmpcfg0,t0
    8000002e:	00001297          	auipc	t0,0x1
    80000032:	fd228293          	addi	t0,t0,-46 # 80001000 <pgtbl>
    80000036:	20000337          	lui	t1,0x20000
    8000003a:	0cf3031b          	addiw	t1,t1,207 # 200000cf <_start-0x5fffff31>
    8000003e:	0062b823          	sd	t1,16(t0)
    80000042:	00001297          	auipc	t0,0x1
    80000046:	fbe28293          	addi	t0,t0,-66 # 80001000 <pgtbl>
    8000004a:	43a1                	li	t2,8
    8000004c:	13f2                	slli	t2,t2,0x3c
    8000004e:	00c2d313          	srli	t1,t0,0xc
    80000052:	0063e3b3          	or	t2,t2,t1
    80000056:	18039073          	csrw	satp,t2
    8000005a:	12000073          	sfence.vma
    8000005e:	30201073          	csrw	medeleg,zero
    80000062:	30301073          	csrw	mideleg,zero
    80000066:	72f9                	lui	t0,0xffffe
    80000068:	7ff2829b          	addiw	t0,t0,2047 # ffffffffffffe7ff <fromhost+0xffffffff7fffc77f>
    8000006c:	30002373          	csrr	t1,mstatus
    80000070:	00537333          	and	t1,t1,t0
    80000074:	6385                	lui	t2,0x1
    80000076:	8003839b          	addiw	t2,t2,-2048 # 800 <_start-0x7ffff800>
    8000007a:	00736333          	or	t1,t1,t2
    8000007e:	30031073          	csrw	mstatus,t1
    80000082:	00000297          	auipc	t0,0x0
    80000086:	01028293          	addi	t0,t0,16 # 80000092 <s_code>
    8000008a:	34129073          	csrw	mepc,t0
    8000008e:	30200073          	mret

0000000080000092 <s_code>:
    80000092:	00002517          	auipc	a0,0x2
    80000096:	f6e50513          	addi	a0,a0,-146 # 80002000 <buf>
    8000009a:	004495b7          	lui	a1,0x449
    8000009e:	8cd5859b          	addiw	a1,a1,-1843 # 4488cd <_start-0x7fbb7733>
    800000a2:	05ba                	slli	a1,a1,0xe
    800000a4:	45558593          	addi	a1,a1,1109
    800000a8:	05b2                	slli	a1,a1,0xc
    800000aa:	66758593          	addi	a1,a1,1639
    800000ae:	05b2                	slli	a1,a1,0xc
    800000b0:	78858593          	addi	a1,a1,1928
    800000b4:	e10c                	sd	a1,0(a0)
    800000b6:	6110                	ld	a2,0(a0)
    800000b8:	04c59563          	bne	a1,a2,80000102 <fail>
    800000bc:	00ee9437          	lui	s0,0xee9
    800000c0:	9254041b          	addiw	s0,s0,-1755 # ee8925 <_start-0x7f1176db>
    800000c4:	043a                	slli	s0,s0,0xe
    800000c6:	90740413          	addi	s0,s0,-1785
    800000ca:	0432                	slli	s0,s0,0xc
    800000cc:	df740413          	addi	s0,s0,-521
    800000d0:	0436                	slli	s0,s0,0xd
    800000d2:	b9140413          	addi	s0,s0,-1135
    800000d6:	f2040853          	fmv.d.x	fa6,s0
    800000da:	02711437          	lui	s0,0x2711
    800000de:	41b4041b          	addiw	s0,s0,1051 # 271141b <_start-0x7d8eebe5>
    800000e2:	0432                	slli	s0,s0,0xc
    800000e4:	fdb40413          	addi	s0,s0,-37
    800000e8:	0432                	slli	s0,s0,0xc
    800000ea:	5a340413          	addi	s0,s0,1443
    800000ee:	0432                	slli	s0,s0,0xc
    800000f0:	f5840413          	addi	s0,s0,-168
    800000f4:	f20408d3          	fmv.d.x	fa7,s0
    800000f8:	09181853          	fsub.s	fa6,fa6,fa7,rtz
    800000fc:	404878d3          	fround.s	fa7,fa6
    80000100:	a045                	j	800001a0 <exit>

0000000080000102 <fail>:
    80000102:	4285                	li	t0,1
    80000104:	0286                	slli	t0,t0,0x1
    80000106:	0012e293          	ori	t0,t0,1
    8000010a:	00002317          	auipc	t1,0x2
    8000010e:	f3630313          	addi	t1,t1,-202 # 80002040 <tohost>
    80000112:	00533023          	sd	t0,0(t1)

0000000080000116 <spin_fail>:
    80000116:	a001                	j	80000116 <spin_fail>
    80000118:	a061                	j	800001a0 <exit>
    8000011a:	0001                	nop

000000008000011c <trap_handler>:
    8000011c:	341022f3          	csrr	t0,mepc
    80000120:	34202373          	csrr	t1,mcause
    80000124:	34302ef3          	csrr	t4,mtval
    80000128:	00131f13          	slli	t5,t1,0x1
    8000012c:	001f5313          	srli	t1,t5,0x1
    80000130:	4e25                	li	t3,9
    80000132:	01c31963          	bne	t1,t3,80000144 <check_page_fault>
    80000136:	6389                	lui	t2,0x2
    80000138:	8003839b          	addiw	t2,t2,-2048 # 1800 <_start-0x7fffe800>
    8000013c:	3003a073          	csrs	mstatus,t2
    80000140:	4391                	li	t2,4
    80000142:	a0b1                	j	8000018e <update_mepc>

0000000080000144 <check_page_fault>:
    80000144:	4e35                	li	t3,13
    80000146:	01c30663          	beq	t1,t3,80000152 <handle_as_normal_fault>
    8000014a:	4e3d                	li	t3,15
    8000014c:	01c30363          	beq	t1,t3,80000152 <handle_as_normal_fault>
    80000150:	a011                	j	80000154 <original_logic>

0000000080000152 <handle_as_normal_fault>:
    80000152:	a009                	j	80000154 <original_logic>

0000000080000154 <original_logic>:
    80000154:	4389                	li	t2,2
    80000156:	4e09                	li	t3,2
    80000158:	01c30e63          	beq	t1,t3,80000174 <illegal_len>
    8000015c:	4e05                	li	t3,1
    8000015e:	01c30e63          	beq	t1,t3,8000017a <instr_fault_len>
    80000162:	4e31                	li	t3,12
    80000164:	01c30b63          	beq	t1,t3,8000017a <instr_fault_len>
    80000168:	0002de83          	lhu	t4,0(t0)
    8000016c:	a809                	j	8000017e <decode_length>

000000008000016e <other_len>:
    8000016e:	0002de83          	lhu	t4,0(t0)
    80000172:	a031                	j	8000017e <decode_length>

0000000080000174 <illegal_len>:
    80000174:	fe0e8de3          	beqz	t4,8000016e <other_len>
    80000178:	a019                	j	8000017e <decode_length>

000000008000017a <instr_fault_len>:
    8000017a:	4391                	li	t2,4
    8000017c:	a809                	j	8000018e <update_mepc>

000000008000017e <decode_length>:
    8000017e:	003efe93          	andi	t4,t4,3
    80000182:	4e0d                	li	t3,3
    80000184:	01ce9463          	bne	t4,t3,8000018c <compressed_len>
    80000188:	4391                	li	t2,4
    8000018a:	a011                	j	8000018e <update_mepc>

000000008000018c <compressed_len>:
    8000018c:	4389                	li	t2,2

000000008000018e <update_mepc>:
    8000018e:	929e                	add	t0,t0,t2
    80000190:	34129073          	csrw	mepc,t0
    80000194:	34201073          	csrw	mcause,zero
    80000198:	34301073          	csrw	mtval,zero
    8000019c:	30200073          	mret

00000000800001a0 <exit>:
    800001a0:	4281                	li	t0,0
    800001a2:	0286                	slli	t0,t0,0x1
    800001a4:	0012e293          	ori	t0,t0,1
    800001a8:	00002317          	auipc	t1,0x2
    800001ac:	e9830313          	addi	t1,t1,-360 # 80002040 <tohost>
    800001b0:	00533023          	sd	t0,0(t1)

00000000800001b4 <spin>:
    800001b4:	a001                	j	800001b4 <spin>
    800001b6:	0001                	nop
